ccopy_reg
_reconstructor
p1
(cmatplotlib.font_manager
FontManager
p2
c__builtin__
object
p3
NtRp4
(dp5
S'ttflist'
p6
(lp7
g1
(cmatplotlib.font_manager
FontEntry
p8
g3
NtRp9
(dp10
S'style'
p11
Vnormal
p12
sS'name'
p13
VSTIXSizeFiveSym
p14
sS'weight'
p15
I400
sS'stretch'
p16
g12
sS'variant'
p17
g12
sS'fname'
p18
VC:\u005cUsers\u005cDennis\u005cAnaconda2\u005clib\u005csite-packages\u005cmatplotlib\u005cmpl-data\u005cfonts\u005cttf\u005cSTIXSizFiveSymReg.ttf
p19
sS'size'
p20
Vscalable
p21
sbag1
(g8
g3
NtRp22
(dp23
g11
g12
sg13
VBitstream Vera Serif
p24
sg15
I700
sg16
g12
sg17
g12
sg18
VC:\u005cUsers\u005cDennis\u005cAnaconda2\u005clib\u005csite-packages\u005cmatplotlib\u005cmpl-data\u005cfonts\u005cttf\u005cVeraSeBd.ttf
p25
sg20
g21
sbag1
(g8
g3
NtRp26
(dp27
g11
Vitalic
p28
sg13
VSTIXGeneral
p29
sg15
I400
sg16
g12
sg17
g12
sg18
VC:\u005cUsers\u005cDennis\u005cAnaconda2\u005clib\u005csite-packages\u005cmatplotlib\u005cmpl-data\u005cfonts\u005cttf\u005cSTIXGeneralItalic.ttf
p30
sg20
g21
sbag1
(g8
g3
NtRp31
(dp32
g11
g12
sg13
VSTIXSizeFourSym
p33
sg15
I700
sg16
g12
sg17
g12
sg18
VC:\u005cUsers\u005cDennis\u005cAnaconda2\u005clib\u005csite-packages\u005cmatplotlib\u005cmpl-data\u005cfonts\u005cttf\u005cSTIXSizFourSymBol.ttf
p34
sg20
g21
sbag1
(g8
g3
NtRp35
(dp36
g11
g12
sg13
Vcmr10
p37
sg15
I400
sg16
g12
sg17
g12
sg18
VC:\u005cUsers\u005cDennis\u005cAnaconda2\u005clib\u005csite-packages\u005cmatplotlib\u005cmpl-data\u005cfonts\u005cttf\u005ccmr10.ttf
p38
sg20
g21
sbag1
(g8
g3
NtRp39
(dp40
g11
g12
sg13
Vcmss10
p41
sg15
I400
sg16
g12
sg17
g12
sg18
VC:\u005cUsers\u005cDennis\u005cAnaconda2\u005clib\u005csite-packages\u005cmatplotlib\u005cmpl-data\u005cfonts\u005cttf\u005ccmss10.ttf
p42
sg20
g21
sbag1
(g8
g3
NtRp43
(dp44
g11
g12
sg13
VSTIXGeneral
p45
sg15
I700
sg16
g12
sg17
g12
sg18
VC:\u005cUsers\u005cDennis\u005cAnaconda2\u005clib\u005csite-packages\u005cmatplotlib\u005cmpl-data\u005cfonts\u005cttf\u005cSTIXGeneralBol.ttf
p46
sg20
g21
sbag1
(g8
g3
NtRp47
(dp48
g11
g12
sg13
VSTIXSizeOneSym
p49
sg15
I700
sg16
g12
sg17
g12
sg18
VC:\u005cUsers\u005cDennis\u005cAnaconda2\u005clib\u005csite-packages\u005cmatplotlib\u005cmpl-data\u005cfonts\u005cttf\u005cSTIXSizOneSymBol.ttf
p50
sg20
g21
sbag1
(g8
g3
NtRp51
(dp52
g11
g12
sg13
VSTIXSizeThreeSym
p53
sg15
I400
sg16
g12
sg17
g12
sg18
VC:\u005cUsers\u005cDennis\u005cAnaconda2\u005clib\u005csite-packages\u005cmatplotlib\u005cmpl-data\u005cfonts\u005cttf\u005cSTIXSizThreeSymReg.ttf
p54
sg20
g21
sbag1
(g8
g3
NtRp55
(dp56
g11
Voblique
p57
sg13
VBitstream Vera Sans
p58
sg15
I400
sg16
g12
sg17
g12
sg18
VC:\u005cUsers\u005cDennis\u005cAnaconda2\u005clib\u005csite-packages\u005cmatplotlib\u005cmpl-data\u005cfonts\u005cttf\u005cVeraIt.ttf
p59
sg20
g21
sbag1
(g8
g3
NtRp60
(dp61
g11
g12
sg13
VSTIXSizeThreeSym
p62
sg15
I700
sg16
g12
sg17
g12
sg18
VC:\u005cUsers\u005cDennis\u005cAnaconda2\u005clib\u005csite-packages\u005cmatplotlib\u005cmpl-data\u005cfonts\u005cttf\u005cSTIXSizThreeSymBol.ttf
p63
sg20
g21
sbag1
(g8
g3
NtRp64
(dp65
g11
g12
sg13
VSTIXGeneral
p66
sg15
I400
sg16
g12
sg17
g12
sg18
VC:\u005cUsers\u005cDennis\u005cAnaconda2\u005clib\u005csite-packages\u005cmatplotlib\u005cmpl-data\u005cfonts\u005cttf\u005cSTIXGeneral.ttf
p67
sg20
g21
sbag1
(g8
g3
NtRp68
(dp69
g11
g12
sg13
VSTIXSizeOneSym
p70
sg15
I400
sg16
g12
sg17
g12
sg18
VC:\u005cUsers\u005cDennis\u005cAnaconda2\u005clib\u005csite-packages\u005cmatplotlib\u005cmpl-data\u005cfonts\u005cttf\u005cSTIXSizOneSymReg.ttf
p71
sg20
g21
sbag1
(g8
g3
NtRp72
(dp73
g11
g12
sg13
Vcmmi10
p74
sg15
I400
sg16
g12
sg17
g12
sg18
VC:\u005cUsers\u005cDennis\u005cAnaconda2\u005clib\u005csite-packages\u005cmatplotlib\u005cmpl-data\u005cfonts\u005cttf\u005ccmmi10.ttf
p75
sg20
g21
sbag1
(g8
g3
NtRp76
(dp77
g11
g12
sg13
Vcmex10
p78
sg15
I400
sg16
g12
sg17
g12
sg18
VC:\u005cUsers\u005cDennis\u005cAnaconda2\u005clib\u005csite-packages\u005cmatplotlib\u005cmpl-data\u005cfonts\u005cttf\u005ccmex10.ttf
p79
sg20
g21
sbag1
(g8
g3
NtRp80
(dp81
g11
g12
sg13
Vcmsy10
p82
sg15
I400
sg16
g12
sg17
g12
sg18
VC:\u005cUsers\u005cDennis\u005cAnaconda2\u005clib\u005csite-packages\u005cmatplotlib\u005cmpl-data\u005cfonts\u005cttf\u005ccmsy10.ttf
p83
sg20
g21
sbag1
(g8
g3
NtRp84
(dp85
g11
g12
sg13
Vcmtt10
p86
sg15
I400
sg16
g12
sg17
g12
sg18
VC:\u005cUsers\u005cDennis\u005cAnaconda2\u005clib\u005csite-packages\u005cmatplotlib\u005cmpl-data\u005cfonts\u005cttf\u005ccmtt10.ttf
p87
sg20
g21
sbag1
(g8
g3
NtRp88
(dp89
g11
g12
sg13
VBitstream Vera Serif
p90
sg15
I400
sg16
g12
sg17
g12
sg18
VC:\u005cUsers\u005cDennis\u005cAnaconda2\u005clib\u005csite-packages\u005cmatplotlib\u005cmpl-data\u005cfonts\u005cttf\u005cVeraSe.ttf
p91
sg20
g21
sbag1
(g8
g3
NtRp92
(dp93
g11
g12
sg13
VBitstream Vera Sans Mono
p94
sg15
I400
sg16
g12
sg17
g12
sg18
VC:\u005cUsers\u005cDennis\u005cAnaconda2\u005clib\u005csite-packages\u005cmatplotlib\u005cmpl-data\u005cfonts\u005cttf\u005cVeraMono.ttf
p95
sg20
g21
sbag1
(g8
g3
NtRp96
(dp97
g11
g12
sg13
VBitstream Vera Sans Mono
p98
sg15
I700
sg16
g12
sg17
g12
sg18
VC:\u005cUsers\u005cDennis\u005cAnaconda2\u005clib\u005csite-packages\u005cmatplotlib\u005cmpl-data\u005cfonts\u005cttf\u005cVeraMoBd.ttf
p99
sg20
g21
sbag1
(g8
g3
NtRp100
(dp101
g11
g12
sg13
VSTIXNonUnicode
p102
sg15
I400
sg16
g12
sg17
g12
sg18
VC:\u005cUsers\u005cDennis\u005cAnaconda2\u005clib\u005csite-packages\u005cmatplotlib\u005cmpl-data\u005cfonts\u005cttf\u005cSTIXNonUni.ttf
p103
sg20
g21
sbag1
(g8
g3
NtRp104
(dp105
g11
g57
sg13
VBitstream Vera Sans Mono
p106
sg15
I400
sg16
g12
sg17
g12
sg18
VC:\u005cUsers\u005cDennis\u005cAnaconda2\u005clib\u005csite-packages\u005cmatplotlib\u005cmpl-data\u005cfonts\u005cttf\u005cVeraMoIt.ttf
p107
sg20
g21
sbag1
(g8
g3
NtRp108
(dp109
g11
g12
sg13
VSTIXSizeTwoSym
p110
sg15
I400
sg16
g12
sg17
g12
sg18
VC:\u005cUsers\u005cDennis\u005cAnaconda2\u005clib\u005csite-packages\u005cmatplotlib\u005cmpl-data\u005cfonts\u005cttf\u005cSTIXSizTwoSymReg.ttf
p111
sg20
g21
sbag1
(g8
g3
NtRp112
(dp113
g11
g12
sg13
VSTIXSizeTwoSym
p114
sg15
I700
sg16
g12
sg17
g12
sg18
VC:\u005cUsers\u005cDennis\u005cAnaconda2\u005clib\u005csite-packages\u005cmatplotlib\u005cmpl-data\u005cfonts\u005cttf\u005cSTIXSizTwoSymBol.ttf
p115
sg20
g21
sbag1
(g8
g3
NtRp116
(dp117
g11
g28
sg13
VSTIXNonUnicode
p118
sg15
I400
sg16
g12
sg17
g12
sg18
VC:\u005cUsers\u005cDennis\u005cAnaconda2\u005clib\u005csite-packages\u005cmatplotlib\u005cmpl-data\u005cfonts\u005cttf\u005cSTIXNonUniIta.ttf
p119
sg20
g21
sbag1
(g8
g3
NtRp120
(dp121
g11
g57
sg13
VBitstream Vera Sans Mono
p122
sg15
I700
sg16
g12
sg17
g12
sg18
VC:\u005cUsers\u005cDennis\u005cAnaconda2\u005clib\u005csite-packages\u005cmatplotlib\u005cmpl-data\u005cfonts\u005cttf\u005cVeraMoBI.ttf
p123
sg20
g21
sbag1
(g8
g3
NtRp124
(dp125
g11
g12
sg13
VBitstream Vera Sans
p126
sg15
I700
sg16
g12
sg17
g12
sg18
VC:\u005cUsers\u005cDennis\u005cAnaconda2\u005clib\u005csite-packages\u005cmatplotlib\u005cmpl-data\u005cfonts\u005cttf\u005cVeraBd.ttf
p127
sg20
g21
sbag1
(g8
g3
NtRp128
(dp129
g11
g28
sg13
VSTIXGeneral
p130
sg15
I700
sg16
g12
sg17
g12
sg18
VC:\u005cUsers\u005cDennis\u005cAnaconda2\u005clib\u005csite-packages\u005cmatplotlib\u005cmpl-data\u005cfonts\u005cttf\u005cSTIXGeneralBolIta.ttf
p131
sg20
g21
sbag1
(g8
g3
NtRp132
(dp133
g11
g12
sg13
Vcmb10
p134
sg15
I400
sg16
g12
sg17
g12
sg18
VC:\u005cUsers\u005cDennis\u005cAnaconda2\u005clib\u005csite-packages\u005cmatplotlib\u005cmpl-data\u005cfonts\u005cttf\u005ccmb10.ttf
p135
sg20
g21
sbag1
(g8
g3
NtRp136
(dp137
g11
g12
sg13
VSTIXNonUnicode
p138
sg15
I700
sg16
g12
sg17
g12
sg18
VC:\u005cUsers\u005cDennis\u005cAnaconda2\u005clib\u005csite-packages\u005cmatplotlib\u005cmpl-data\u005cfonts\u005cttf\u005cSTIXNonUniBol.ttf
p139
sg20
g21
sbag1
(g8
g3
NtRp140
(dp141
g11
g28
sg13
VSTIXNonUnicode
p142
sg15
I700
sg16
g12
sg17
g12
sg18
VC:\u005cUsers\u005cDennis\u005cAnaconda2\u005clib\u005csite-packages\u005cmatplotlib\u005cmpl-data\u005cfonts\u005cttf\u005cSTIXNonUniBolIta.ttf
p143
sg20
g21
sbag1
(g8
g3
NtRp144
(dp145
g11
g12
sg13
VSTIXSizeFourSym
p146
sg15
I400
sg16
g12
sg17
g12
sg18
VC:\u005cUsers\u005cDennis\u005cAnaconda2\u005clib\u005csite-packages\u005cmatplotlib\u005cmpl-data\u005cfonts\u005cttf\u005cSTIXSizFourSymReg.ttf
p147
sg20
g21
sbag1
(g8
g3
NtRp148
(dp149
g11
g57
sg13
VBitstream Vera Sans
p150
sg15
I700
sg16
g12
sg17
g12
sg18
VC:\u005cUsers\u005cDennis\u005cAnaconda2\u005clib\u005csite-packages\u005cmatplotlib\u005cmpl-data\u005cfonts\u005cttf\u005cVeraBI.ttf
p151
sg20
g21
sbag1
(g8
g3
NtRp152
(dp153
g11
g12
sg13
VBitstream Vera Sans
p154
sg15
I400
sg16
g12
sg17
g12
sg18
VC:\u005cUsers\u005cDennis\u005cAnaconda2\u005clib\u005csite-packages\u005cmatplotlib\u005cmpl-data\u005cfonts\u005cttf\u005cVera.ttf
p155
sg20
g21
sbag1
(g8
g3
NtRp156
(dp157
g11
g12
sg13
VCourier New
p158
sg15
I400
sg16
g12
sg17
g12
sg18
VC:\u005cWindows\u005cFonts\u005ccour.ttf
p159
sg20
g21
sbag1
(g8
g3
NtRp160
(dp161
g11
g12
sg13
VFootlight MT Light
p162
sg15
I200
sg16
g12
sg17
g12
sg18
Vc:\u005cwindows\u005cfonts\u005cftltlt.ttf
p163
sg20
g21
sbag1
(g8
g3
NtRp164
(dp165
g11
g28
sg13
VBrowallia New
p166
sg15
I400
sg16
g12
sg17
g12
sg18
Vc:\u005cwindows\u005cfonts\u005cbrowai.ttf
p167
sg20
g21
sbag1
(g8
g3
NtRp168
(dp169
g11
g12
sg13
VStencil
p170
sg15
I400
sg16
g12
sg17
g12
sg18
VC:\u005cWindows\u005cFonts\u005cSTENCIL.TTF
p171
sg20
g21
sbag1
(g8
g3
NtRp172
(dp173
g11
g12
sg13
VCambria
p174
sg15
I700
sg16
g12
sg17
g12
sg18
Vc:\u005cwindows\u005cfonts\u005ccambriab.ttf
p175
sg20
g21
sbag1
(g8
g3
NtRp176
(dp177
g11
g28
sg13
VVerdana
p178
sg15
I700
sg16
g12
sg17
g12
sg18
VC:\u005cWindows\u005cFonts\u005cverdanaz.ttf
p179
sg20
g21
sbag1
(g8
g3
NtRp180
(dp181
g11
g28
sg13
VPalatino Linotype
p182
sg15
I700
sg16
g12
sg17
g12
sg18
VC:\u005cWindows\u005cFonts\u005cpalabi.ttf
p183
sg20
g21
sbag1
(g8
g3
NtRp184
(dp185
g11
g28
sg13
VJasmineUPC
p186
sg15
I400
sg16
g12
sg17
g12
sg18
Vc:\u005cwindows\u005cfonts\u005cupcji.ttf
p187
sg20
g21
sbag1
(g8
g3
NtRp188
(dp189
g11
g12
sg13
VMicrosoft Tai Le
p190
sg15
I700
sg16
g12
sg17
g12
sg18
VC:\u005cWindows\u005cFonts\u005ctaileb.ttf
p191
sg20
g21
sbag1
(g8
g3
NtRp192
(dp193
g11
g12
sg13
VTrebuchet MS
p194
sg15
I700
sg16
g12
sg17
g12
sg18
Vc:\u005cwindows\u005cfonts\u005ctrebucbd.ttf
p195
sg20
g21
sbag1
(g8
g3
NtRp196
(dp197
g11
g12
sg13
VTahoma
p198
sg15
I700
sg16
g12
sg17
g12
sg18
VC:\u005cWindows\u005cFonts\u005ctahomabd.ttf
p199
sg20
g21
sbag1
(g8
g3
NtRp200
(dp201
g11
g28
sg13
VBell MT
p202
sg15
I400
sg16
g12
sg17
g12
sg18
Vc:\u005cwindows\u005cfonts\u005cbelli.ttf
p203
sg20
g21
sbag1
(g8
g3
NtRp204
(dp205
g11
g28
sg13
VBodoni MT
p206
sg15
I900
sg16
g12
sg17
g12
sg18
Vc:\u005cwindows\u005cfonts\u005cbod_blai.ttf
p207
sg20
g21
sbag1
(g8
g3
NtRp208
(dp209
g11
g12
sg13
VCopperplate Gothic Bold
p210
sg15
I700
sg16
g12
sg17
g12
sg18
VC:\u005cWindows\u005cFonts\u005cCOPRGTB.TTF
p211
sg20
g21
sbag1
(g8
g3
NtRp212
(dp213
g11
g28
sg13
VElephant
p214
sg15
I400
sg16
g12
sg17
g12
sg18
VC:\u005cWindows\u005cFonts\u005cELEPHNTI.TTF
p215
sg20
g21
sbag1
(g8
g3
NtRp216
(dp217
g11
g12
sg13
VBrowalliaUPC
p218
sg15
I400
sg16
g12
sg17
g12
sg18
Vc:\u005cwindows\u005cfonts\u005cbrowau.ttf
p219
sg20
g21
sbag1
(g8
g3
NtRp220
(dp221
g11
g12
sg13
VKaiTi
p222
sg15
I400
sg16
g12
sg17
g12
sg18
Vc:\u005cwindows\u005cfonts\u005csimkai.ttf
p223
sg20
g21
sbag1
(g8
g3
NtRp224
(dp225
g11
g12
sg13
VFranklin Gothic Demi
p226
sg15
I600
sg16
g12
sg17
g12
sg18
Vc:\u005cwindows\u005cfonts\u005cfradm.ttf
p227
sg20
g21
sbag1
(g8
g3
NtRp228
(dp229
g11
g28
sg13
VTrebuchet MS
p230
sg15
I700
sg16
g12
sg17
g12
sg18
Vc:\u005cwindows\u005cfonts\u005ctrebucbi.ttf
p231
sg20
g21
sbag1
(g8
g3
NtRp232
(dp233
g11
g12
sg13
VMonotype Corsiva
p234
sg15
I400
sg16
g12
sg17
g12
sg18
Vc:\u005cwindows\u005cfonts\u005cmtcorsva.ttf
p235
sg20
g21
sbag1
(g8
g3
NtRp236
(dp237
g11
g28
sg13
VSegoe UI
p238
sg15
I700
sg16
g12
sg17
g12
sg18
Vc:\u005cwindows\u005cfonts\u005csegoeuiz.ttf
p239
sg20
g21
sbag1
(g8
g3
NtRp240
(dp241
g11
g12
sg13
VBodoni MT
p242
sg15
I400
sg16
Vcondensed
p243
sg17
g12
sg18
Vc:\u005cwindows\u005cfonts\u005cbod_cr.ttf
p244
sg20
g21
sbag1
(g8
g3
NtRp245
(dp246
g11
g28
sg13
VBodoni MT
p247
sg15
I700
sg16
g12
sg17
g12
sg18
Vc:\u005cwindows\u005cfonts\u005cbod_bi.ttf
p248
sg20
g21
sbag1
(g8
g3
NtRp249
(dp250
g11
g28
sg13
VGill Sans MT
p251
sg15
I400
sg16
g12
sg17
g12
sg18
Vc:\u005cwindows\u005cfonts\u005cgili____.ttf
p252
sg20
g21
sbag1
(g8
g3
NtRp253
(dp254
g11
g12
sg13
VKunstler Script
p255
sg15
I400
sg16
g12
sg17
g12
sg18
VC:\u005cWindows\u005cFonts\u005cKUNSTLER.TTF
p256
sg20
g21
sbag1
(g8
g3
NtRp257
(dp258
g11
g28
sg13
VBrowalliaUPC
p259
sg15
I700
sg16
g12
sg17
g12
sg18
Vc:\u005cwindows\u005cfonts\u005cbrowauz.ttf
p260
sg20
g21
sbag1
(g8
g3
NtRp261
(dp262
g11
g12
sg13
VMalgun Gothic
p263
sg15
I700
sg16
g12
sg17
g12
sg18
VC:\u005cWindows\u005cFonts\u005cmalgunbd.ttf
p264
sg20
g21
sbag1
(g8
g3
NtRp265
(dp266
g11
g12
sg13
VImprint MT Shadow
p267
sg15
I400
sg16
g12
sg17
g12
sg18
Vc:\u005cwindows\u005cfonts\u005cimprisha.ttf
p268
sg20
g21
sbag1
(g8
g3
NtRp269
(dp270
g11
g12
sg13
VDokChampa
p271
sg15
I400
sg16
g12
sg17
g12
sg18
VC:\u005cWindows\u005cFonts\u005cdokchamp.ttf
p272
sg20
g21
sbag1
(g8
g3
NtRp273
(dp274
g11
g12
sg13
VCurlz MT
p275
sg15
I400
sg16
g12
sg17
g12
sg18
VC:\u005cWindows\u005cFonts\u005cCURLZ___.TTF
p276
sg20
g21
sbag1
(g8
g3
NtRp277
(dp278
g11
g28
sg13
VArial
p279
sg15
I400
sg16
g12
sg17
g12
sg18
Vc:\u005cwindows\u005cfonts\u005cariali.ttf
p280
sg20
g21
sbag1
(g8
g3
NtRp281
(dp282
g11
g12
sg13
VTw Cen MT
p283
sg15
I400
sg16
g12
sg17
g12
sg18
Vc:\u005cwindows\u005cfonts\u005ctcm_____.ttf
p284
sg20
g21
sbag1
(g8
g3
NtRp285
(dp286
g11
g12
sg13
VBritannic Bold
p287
sg15
I700
sg16
g12
sg17
g12
sg18
VC:\u005cWindows\u005cFonts\u005cBRITANIC.TTF
p288
sg20
g21
sbag1
(g8
g3
NtRp289
(dp290
g11
g12
sg13
VKhmer UI
p291
sg15
I700
sg16
g12
sg17
g12
sg18
Vc:\u005cwindows\u005cfonts\u005ckhmeruib.ttf
p292
sg20
g21
sbag1
(g8
g3
NtRp293
(dp294
g11
g12
sg13
VTw Cen MT Condensed
p295
sg15
I700
sg16
g243
sg17
g12
sg18
Vc:\u005cwindows\u005cfonts\u005ctccb____.ttf
p296
sg20
g21
sbag1
(g8
g3
NtRp297
(dp298
g11
g12
sg13
VSimplified Arabic
p299
sg15
I400
sg16
g12
sg17
g12
sg18
Vc:\u005cwindows\u005cfonts\u005csimpo.ttf
p300
sg20
g21
sbag1
(g8
g3
NtRp301
(dp302
g11
g12
sg13
VArabic Typesetting
p303
sg15
I400
sg16
g12
sg17
g12
sg18
Vc:\u005cwindows\u005cfonts\u005carabtype.ttf
p304
sg20
g21
sbag1
(g8
g3
NtRp305
(dp306
g11
g12
sg13
VKartika
p307
sg15
I700
sg16
g12
sg17
g12
sg18
VC:\u005cWindows\u005cFonts\u005ckartikab.ttf
p308
sg20
g21
sbag1
(g8
g3
NtRp309
(dp310
g11
g12
sg13
VKhmer UI
p311
sg15
I400
sg16
g12
sg17
g12
sg18
Vc:\u005cwindows\u005cfonts\u005ckhmerui.ttf
p312
sg20
g21
sbag1
(g8
g3
NtRp313
(dp314
g11
g12
sg13
VSegoe UI
p315
sg15
I400
sg16
g12
sg17
g12
sg18
Vc:\u005cwindows\u005cfonts\u005cseguisb.ttf
p316
sg20
g21
sbag1
(g8
g3
NtRp317
(dp318
g11
g12
sg13
VKalinga
p319
sg15
I400
sg16
g12
sg17
g12
sg18
VC:\u005cWindows\u005cFonts\u005ckalinga.ttf
p320
sg20
g21
sbag1
(g8
g3
NtRp321
(dp322
g11
g12
sg13
VTI-83p Mini Sans
p323
sg15
I400
sg16
g12
sg17
g12
sg18
VC:\u005cWindows\u005cFonts\u005cTI-83pmini.ttf
p324
sg20
g21
sbag1
(g8
g3
NtRp325
(dp326
g11
g12
sg13
VKokila
p327
sg15
I700
sg16
g12
sg17
g12
sg18
VC:\u005cWindows\u005cFonts\u005ckokilab.ttf
p328
sg20
g21
sbag1
(g8
g3
NtRp329
(dp330
g11
g12
sg13
VFranklin Gothic Heavy
p331
sg15
I800
sg16
g12
sg17
g12
sg18
VC:\u005cWindows\u005cFonts\u005cFRAHV.TTF
p332
sg20
g21
sbag1
(g8
g3
NtRp333
(dp334
g11
g12
sg13
VCalibri
p335
sg15
I200
sg16
g12
sg17
g12
sg18
VC:\u005cWindows\u005cFonts\u005ccalibril.ttf
p336
sg20
g21
sbag1
(g8
g3
NtRp337
(dp338
g11
g12
sg13
VCordia New
p339
sg15
I700
sg16
g12
sg17
g12
sg18
VC:\u005cWindows\u005cFonts\u005ccordiab.ttf
p340
sg20
g21
sbag1
(g8
g3
NtRp341
(dp342
g11
g12
sg13
VGautami
p343
sg15
I700
sg16
g12
sg17
g12
sg18
VC:\u005cWindows\u005cFonts\u005cgautamib.ttf
p344
sg20
g21
sbag1
(g8
g3
NtRp345
(dp346
g11
g12
sg13
VTi83pc
p347
sg15
I400
sg16
g12
sg17
g12
sg18
Vc:\u005cwindows\u005cfonts\u005cti-83.ttf
p348
sg20
g21
sbag1
(g8
g3
NtRp349
(dp350
g11
g28
sg13
VGeorgia
p351
sg15
I400
sg16
g12
sg17
g12
sg18
VC:\u005cWindows\u005cFonts\u005cgeorgiai.ttf
p352
sg20
g21
sbag1
(g8
g3
NtRp353
(dp354
g11
g12
sg13
VLeelawadee
p355
sg15
I700
sg16
g12
sg17
g12
sg18
VC:\u005cWindows\u005cFonts\u005cleelawdb.ttf
p356
sg20
g21
sbag1
(g8
g3
NtRp357
(dp358
g11
g12
sg13
VTi73pc
p359
sg15
I700
sg16
g12
sg17
g12
sg18
Vc:\u005cwindows\u005cfonts\u005cti-73bd.ttf
p360
sg20
g21
sbag1
(g8
g3
NtRp361
(dp362
g11
g12
sg13
VPristina
p363
sg15
I400
sg16
g12
sg17
g12
sg18
Vc:\u005cwindows\u005cfonts\u005cpristina.ttf
p364
sg20
g21
sbag1
(g8
g3
NtRp365
(dp366
g11
g12
sg13
VOnyx
p367
sg15
I400
sg16
g12
sg17
g12
sg18
VC:\u005cWindows\u005cFonts\u005cONYX.TTF
p368
sg20
g21
sbag1
(g8
g3
NtRp369
(dp370
g11
g12
sg13
VBaskerville Old Face
p371
sg15
I400
sg16
g12
sg17
g12
sg18
VC:\u005cWindows\u005cFonts\u005cBASKVILL.TTF
p372
sg20
g21
sbag1
(g8
g3
NtRp373
(dp374
g11
g57
sg13
VLucida Sans Typewriter
p375
sg15
I400
sg16
g12
sg17
g12
sg18
VC:\u005cWindows\u005cFonts\u005cLTYPEO.TTF
p376
sg20
g21
sbag1
(g8
g3
NtRp377
(dp378
g11
g12
sg13
VMicrosoft Himalaya
p379
sg15
I400
sg16
g12
sg17
g12
sg18
VC:\u005cWindows\u005cFonts\u005chimalaya.ttf
p380
sg20
g21
sbag1
(g8
g3
NtRp381
(dp382
g11
g12
sg13
VCordia New
p383
sg15
I400
sg16
g12
sg17
g12
sg18
VC:\u005cWindows\u005cFonts\u005ccordia.ttf
p384
sg20
g21
sbag1
(g8
g3
NtRp385
(dp386
g11
g28
sg13
VCalifornian FB
p387
sg15
I400
sg16
g12
sg17
g12
sg18
Vc:\u005cwindows\u005cfonts\u005ccalifi.ttf
p388
sg20
g21
sbag1
(g8
g3
NtRp389
(dp390
g11
g12
sg13
VKievit Offc Pro
p391
sg15
I400
sg16
g12
sg17
g12
sg18
Vc:\u005cwindows\u005cfonts\u005ckievitoffcpro.ttf
p392
sg20
g21
sbag1
(g8
g3
NtRp393
(dp394
g11
g12
sg13
VConsolas
p395
sg15
I400
sg16
g12
sg17
g12
sg18
Vc:\u005cwindows\u005cfonts\u005cconsola.ttf
p396
sg20
g21
sbag1
(g8
g3
NtRp397
(dp398
g11
g28
sg13
VGill Sans MT
p399
sg15
I700
sg16
g12
sg17
g12
sg18
Vc:\u005cwindows\u005cfonts\u005cgilbi___.ttf
p400
sg20
g21
sbag1
(g8
g3
NtRp401
(dp402
g11
g28
sg13
VAngsana New
p403
sg15
I400
sg16
g12
sg17
g12
sg18
VC:\u005cWindows\u005cFonts\u005cangsai.ttf
p404
sg20
g21
sbag1
(g8
g3
NtRp405
(dp406
g11
g12
sg13
VGhang 
p407
sg15
I400
sg16
g12
sg17
g12
sg18
VC:\u005cWindows\u005cFonts\u005cNo_License_Ghang.ttf
p408
sg20
g21
sbag1
(g8
g3
NtRp409
(dp410
g11
g12
sg13
VFreesiaUPC
p411
sg15
I700
sg16
g12
sg17
g12
sg18
VC:\u005cWindows\u005cFonts\u005cupcfb.ttf
p412
sg20
g21
sbag1
(g8
g3
NtRp413
(dp414
g11
g12
sg13
VStreet Writer (noah)
p415
sg15
I400
sg16
g12
sg17
g12
sg18
Vc:\u005cwindows\u005cfonts\u005cstreet writers.ttf
p416
sg20
g21
sbag1
(g8
g3
NtRp417
(dp418
g11
g12
sg13
VArial
p419
sg15
I700
sg16
g12
sg17
g12
sg18
Vc:\u005cwindows\u005cfonts\u005carialbd.ttf
p420
sg20
g21
sbag1
(g8
g3
NtRp421
(dp422
g11
g12
sg13
VSakkal Majalla
p423
sg15
I400
sg16
g12
sg17
g12
sg18
VC:\u005cWindows\u005cFonts\u005cmajalla.ttf
p424
sg20
g21
sbag1
(g8
g3
NtRp425
(dp426
g11
g12
sg13
VMicrosoft YaHei
p427
sg15
I400
sg16
g12
sg17
g12
sg18
Vc:\u005cwindows\u005cfonts\u005cmsyh.ttf
p428
sg20
g21
sbag1
(g8
g3
NtRp429
(dp430
g11
g12
sg13
VTunga
p431
sg15
I400
sg16
g12
sg17
g12
sg18
VC:\u005cWindows\u005cFonts\u005ctunga.ttf
p432
sg20
g21
sbag1
(g8
g3
NtRp433
(dp434
g11
g12
sg13
VLucida Fax
p435
sg15
I700
sg16
g12
sg17
g12
sg18
Vc:\u005cwindows\u005cfonts\u005clfaxd.ttf
p436
sg20
g21
sbag1
(g8
g3
NtRp437
(dp438
g11
g28
sg13
VCambria
p439
sg15
I700
sg16
g12
sg17
g12
sg18
VC:\u005cWindows\u005cFonts\u005ccambriaz.ttf
p440
sg20
g21
sbag1
(g8
g3
NtRp441
(dp442
g11
g28
sg13
VConstantia
p443
sg15
I700
sg16
g12
sg17
g12
sg18
VC:\u005cWindows\u005cFonts\u005cconstanz.ttf
p444
sg20
g21
sbag1
(g8
g3
NtRp445
(dp446
g11
g28
sg13
VIrisUPC
p447
sg15
I700
sg16
g12
sg17
g12
sg18
VC:\u005cWindows\u005cFonts\u005cupcibi.ttf
p448
sg20
g21
sbag1
(g8
g3
NtRp449
(dp450
g11
g12
sg13
VMaiandra GD
p451
sg15
I400
sg16
g12
sg17
g12
sg18
Vc:\u005cwindows\u005cfonts\u005cmaian.ttf
p452
sg20
g21
sbag1
(g8
g3
NtRp453
(dp454
g11
g12
sg13
VNarkisim
p455
sg15
I400
sg16
g12
sg17
g12
sg18
VC:\u005cWindows\u005cFonts\u005cnrkis.ttf
p456
sg20
g21
sbag1
(g8
g3
NtRp457
(dp458
g11
g12
sg13
VMicrosoft JhengHei
p459
sg15
I700
sg16
g12
sg17
g12
sg18
Vc:\u005cwindows\u005cfonts\u005cmsjhbd.ttf
p460
sg20
g21
sbag1
(g8
g3
NtRp461
(dp462
g11
g28
sg13
VSegoe UI
p463
sg15
I400
sg16
g12
sg17
g12
sg18
VC:\u005cWindows\u005cFonts\u005csegoeuii.ttf
p464
sg20
g21
sbag1
(g8
g3
NtRp465
(dp466
g11
g12
sg13
VMV Boli
p467
sg15
I400
sg16
g12
sg17
g12
sg18
VC:\u005cWindows\u005cFonts\u005cmvboli.ttf
p468
sg20
g21
sbag1
(g8
g3
NtRp469
(dp470
g11
g12
sg13
VKodchiangUPC
p471
sg15
I400
sg16
g12
sg17
g12
sg18
Vc:\u005cwindows\u005cfonts\u005cupckl.ttf
p472
sg20
g21
sbag1
(g8
g3
NtRp473
(dp474
g11
g12
sg13
VLevenim MT
p475
sg15
I700
sg16
g12
sg17
g12
sg18
VC:\u005cWindows\u005cFonts\u005clvnmbd.ttf
p476
sg20
g21
sbag1
(g8
g3
NtRp477
(dp478
g11
g12
sg13
VLucida Sans Typewriter
p479
sg15
I700
sg16
g12
sg17
g12
sg18
VC:\u005cWindows\u005cFonts\u005cLTYPEB.TTF
p480
sg20
g21
sbag1
(g8
g3
NtRp481
(dp482
g11
g12
sg13
VCalisto MT
p483
sg15
I700
sg16
g12
sg17
g12
sg18
VC:\u005cWindows\u005cFonts\u005cCALISTB.TTF
p484
sg20
g21
sbag1
(g8
g3
NtRp485
(dp486
g11
g12
sg13
VKievit Offc Pro
p487
sg15
I400
sg16
g12
sg17
g12
sg18
VC:\u005cWindows\u005cFonts\u005cKievitOffcPro.ttf
p488
sg20
g21
sbag1
(g8
g3
NtRp489
(dp490
g11
g28
sg13
VBook Antiqua
p491
sg15
I700
sg16
g12
sg17
g12
sg18
Vc:\u005cwindows\u005cfonts\u005cantquabi.ttf
p492
sg20
g21
sbag1
(g8
g3
NtRp493
(dp494
g11
g28
sg13
VTw Cen MT
p495
sg15
I400
sg16
g12
sg17
g12
sg18
VC:\u005cWindows\u005cFonts\u005cTCMI____.TTF
p496
sg20
g21
sbag1
(g8
g3
NtRp497
(dp498
g11
g28
sg13
VHigh Tower Text
p499
sg15
I400
sg16
g12
sg17
g12
sg18
VC:\u005cWindows\u005cFonts\u005cHTOWERTI.TTF
p500
sg20
g21
sbag1
(g8
g3
NtRp501
(dp502
g11
g12
sg13
VLucida Sans
p503
sg15
I400
sg16
g12
sg17
g12
sg18
VC:\u005cWindows\u005cFonts\u005cLSANS.TTF
p504
sg20
g21
sbag1
(g8
g3
NtRp505
(dp506
g11
g12
sg13
VKristen ITC
p507
sg15
I400
sg16
g12
sg17
g12
sg18
VC:\u005cWindows\u005cFonts\u005cITCKRIST.TTF
p508
sg20
g21
sbag1
(g8
g3
NtRp509
(dp510
g11
g12
sg13
VMarlett
p511
sg15
I400
sg16
g12
sg17
g12
sg18
VC:\u005cWindows\u005cFonts\u005cmarlett.ttf
p512
sg20
g21
sbag1
(g8
g3
NtRp513
(dp514
g11
g12
sg13
VBrowallia New
p515
sg15
I700
sg16
g12
sg17
g12
sg18
Vc:\u005cwindows\u005cfonts\u005cbrowab.ttf
p516
sg20
g21
sbag1
(g8
g3
NtRp517
(dp518
g11
g12
sg13
VCorbel
p519
sg15
I700
sg16
g12
sg17
g12
sg18
Vc:\u005cwindows\u005cfonts\u005ccorbelb.ttf
p520
sg20
g21
sbag1
(g8
g3
NtRp521
(dp522
g11
g12
sg13
VCalifornian FB
p523
sg15
I700
sg16
g12
sg17
g12
sg18
Vc:\u005cwindows\u005cfonts\u005ccalifb.ttf
p524
sg20
g21
sbag1
(g8
g3
NtRp525
(dp526
g11
g12
sg13
VSimplified Arabic
p527
sg15
I700
sg16
g12
sg17
g12
sg18
Vc:\u005cwindows\u005cfonts\u005csimpbdo.ttf
p528
sg20
g21
sbag1
(g8
g3
NtRp529
(dp530
g11
g12
sg13
VFranklin Gothic Book
p531
sg15
I400
sg16
g12
sg17
g12
sg18
VC:\u005cWindows\u005cFonts\u005cFRABK.TTF
p532
sg20
g21
sbag1
(g8
g3
NtRp533
(dp534
g11
g12
sg13
VInformal Roman
p535
sg15
I500
sg16
g12
sg17
g12
sg18
Vc:\u005cwindows\u005cfonts\u005cinfroman.ttf
p536
sg20
g21
sbag1
(g8
g3
NtRp537
(dp538
g11
g12
sg13
VMS Mincho
p539
sg15
I400
sg16
g12
sg17
g12
sg18
VC:\u005cWindows\u005cFonts\u005cMSMINCHO.TTF
p540
sg20
g21
sbag1
(g8
g3
NtRp541
(dp542
g11
g12
sg13
VLilyUPC
p543
sg15
I400
sg16
g12
sg17
g12
sg18
VC:\u005cWindows\u005cFonts\u005cupcll.ttf
p544
sg20
g21
sbag1
(g8
g3
NtRp545
(dp546
g11
g12
sg13
VAgency FB
p547
sg15
I700
sg16
g12
sg17
g12
sg18
Vc:\u005cwindows\u005cfonts\u005cagencyb.ttf
p548
sg20
g21
sbag1
(g8
g3
NtRp549
(dp550
g11
g28
sg13
VFreesiaUPC
p551
sg15
I700
sg16
g12
sg17
g12
sg18
VC:\u005cWindows\u005cFonts\u005cupcfbi.ttf
p552
sg20
g21
sbag1
(g8
g3
NtRp553
(dp554
g11
g12
sg13
VArial Rounded MT Bold
p555
sg15
I700
sg16
g12
sg17
g12
sg18
VC:\u005cWindows\u005cFonts\u005cARLRDBD.TTF
p556
sg20
g21
sbag1
(g8
g3
NtRp557
(dp558
g11
g12
sg13
VCooper Black
p559
sg15
I900
sg16
g12
sg17
g12
sg18
Vc:\u005cwindows\u005cfonts\u005ccoopbl.ttf
p560
sg20
g21
sbag1
(g8
g3
NtRp561
(dp562
g11
g12
sg13
VTI-92p Mini Sans
p563
sg15
I400
sg16
g12
sg17
g12
sg18
VC:\u005cWindows\u005cFonts\u005cTI-92pmini.TTF
p564
sg20
g21
sbag1
(g8
g3
NtRp565
(dp566
g11
g57
sg13
VLucida Sans Typewriter
p567
sg15
I700
sg16
g12
sg17
g12
sg18
Vc:\u005cwindows\u005cfonts\u005cltypebo.ttf
p568
sg20
g21
sbag1
(g8
g3
NtRp569
(dp570
g11
g12
sg13
VVrinda
p571
sg15
I700
sg16
g12
sg17
g12
sg18
VC:\u005cWindows\u005cFonts\u005cvrindab.ttf
p572
sg20
g21
sbag1
(g8
g3
NtRp573
(dp574
g11
g12
sg13
VKalinga
p575
sg15
I700
sg16
g12
sg17
g12
sg18
VC:\u005cWindows\u005cFonts\u005ckalingab.ttf
p576
sg20
g21
sbag1
(g8
g3
NtRp577
(dp578
g11
g28
sg13
VCalibri
p579
sg15
I400
sg16
g12
sg17
g12
sg18
VC:\u005cWindows\u005cFonts\u005ccalibrii.ttf
p580
sg20
g21
sbag1
(g8
g3
NtRp581
(dp582
g11
g28
sg13
VFranklin Gothic Medium
p583
sg15
I500
sg16
g12
sg17
g12
sg18
VC:\u005cWindows\u005cFonts\u005cframdit.ttf
p584
sg20
g21
sbag1
(g8
g3
NtRp585
(dp586
g11
g12
sg13
VSegoe UI
p587
sg15
I400
sg16
g12
sg17
g12
sg18
VC:\u005cWindows\u005cFonts\u005csegoeui.ttf
p588
sg20
g21
sbag1
(g8
g3
NtRp589
(dp590
g11
g28
sg13
VUtsaah
p591
sg15
I400
sg16
g12
sg17
g12
sg18
Vc:\u005cwindows\u005cfonts\u005cutsaahi.ttf
p592
sg20
g21
sbag1
(g8
g3
NtRp593
(dp594
g11
g12
sg13
VModern No. 20
p595
sg15
I400
sg16
g12
sg17
g12
sg18
Vc:\u005cwindows\u005cfonts\u005cmod20.ttf
p596
sg20
g21
sbag1
(g8
g3
NtRp597
(dp598
g11
g28
sg13
VCentury Schoolbook
p599
sg15
I700
sg16
g12
sg17
g12
sg18
Vc:\u005cwindows\u005cfonts\u005cschlbkbi.ttf
p600
sg20
g21
sbag1
(g8
g3
NtRp601
(dp602
g11
g12
sg13
VVani
p603
sg15
I400
sg16
g12
sg17
g12
sg18
VC:\u005cWindows\u005cFonts\u005cVani.ttf
p604
sg20
g21
sbag1
(g8
g3
NtRp605
(dp606
g11
g12
sg13
VDFKai-SB
p607
sg15
I400
sg16
g12
sg17
g12
sg18
VC:\u005cWindows\u005cFonts\u005ckaiu.ttf
p608
sg20
g21
sbag1
(g8
g3
NtRp609
(dp610
g11
g12
sg13
VOCR A Extended
p611
sg15
I400
sg16
g12
sg17
g12
sg18
Vc:\u005cwindows\u005cfonts\u005cocraext.ttf
p612
sg20
g21
sbag1
(g8
g3
NtRp613
(dp614
g11
g28
sg13
VAngsanaUPC
p615
sg15
I700
sg16
g12
sg17
g12
sg18
Vc:\u005cwindows\u005cfonts\u005cangsauz.ttf
p616
sg20
g21
sbag1
(g8
g3
NtRp617
(dp618
g11
g12
sg13
VShonar Bangla
p619
sg15
I400
sg16
g12
sg17
g12
sg18
Vc:\u005cwindows\u005cfonts\u005cshonar.ttf
p620
sg20
g21
sbag1
(g8
g3
NtRp621
(dp622
g11
g12
sg13
VGoudy Old Style
p623
sg15
I700
sg16
g12
sg17
g12
sg18
VC:\u005cWindows\u005cFonts\u005cGOUDOSB.TTF
p624
sg20
g21
sbag1
(g8
g3
NtRp625
(dp626
g11
g28
sg13
VLucida Sans
p627
sg15
I400
sg16
g12
sg17
g12
sg18
Vc:\u005cwindows\u005cfonts\u005clsansi.ttf
p628
sg20
g21
sbag1
(g8
g3
NtRp629
(dp630
g11
g28
sg13
VKodchiangUPC
p631
sg15
I400
sg16
g12
sg17
g12
sg18
VC:\u005cWindows\u005cFonts\u005cupcki.ttf
p632
sg20
g21
sbag1
(g8
g3
NtRp633
(dp634
g11
g12
sg13
VUtsaah
p635
sg15
I700
sg16
g12
sg17
g12
sg18
VC:\u005cWindows\u005cFonts\u005cutsaahb.ttf
p636
sg20
g21
sbag1
(g8
g3
NtRp637
(dp638
g11
g12
sg13
VEras Medium ITC
p639
sg15
I500
sg16
g12
sg17
g12
sg18
Vc:\u005cwindows\u005cfonts\u005cerasmd.ttf
p640
sg20
g21
sbag1
(g8
g3
NtRp641
(dp642
g11
g28
sg13
VVerdana
p643
sg15
I400
sg16
g12
sg17
g12
sg18
Vc:\u005cwindows\u005cfonts\u005cverdanai.ttf
p644
sg20
g21
sbag1
(g8
g3
NtRp645
(dp646
g11
g12
sg13
VJokerman
p647
sg15
I400
sg16
g12
sg17
g12
sg18
VC:\u005cWindows\u005cFonts\u005cJOKERMAN.TTF
p648
sg20
g21
sbag1
(g8
g3
NtRp649
(dp650
g11
g12
sg13
VConstantia
p651
sg15
I700
sg16
g12
sg17
g12
sg18
VC:\u005cWindows\u005cFonts\u005cconstanb.ttf
p652
sg20
g21
sbag1
(g8
g3
NtRp653
(dp654
g11
g28
sg13
VFranklin Gothic Demi
p655
sg15
I600
sg16
g12
sg17
g12
sg18
Vc:\u005cwindows\u005cfonts\u005cfradmit.ttf
p656
sg20
g21
sbag1
(g8
g3
NtRp657
(dp658
g11
g12
sg13
VWingdings 2
p659
sg15
I400
sg16
g12
sg17
g12
sg18
VC:\u005cWindows\u005cFonts\u005cWINGDNG2.TTF
p660
sg20
g21
sbag1
(g8
g3
NtRp661
(dp662
g11
g12
sg13
VUtsaah
p663
sg15
I400
sg16
g12
sg17
g12
sg18
Vc:\u005cwindows\u005cfonts\u005cutsaah.ttf
p664
sg20
g21
sbag1
(g8
g3
NtRp665
(dp666
g11
g12
sg13
VMicrosoft YaHei
p667
sg15
I700
sg16
g12
sg17
g12
sg18
Vc:\u005cwindows\u005cfonts\u005cmsyhbd.ttf
p668
sg20
g21
sbag1
(g8
g3
NtRp669
(dp670
g11
g12
sg13
VSymbol
p671
sg15
I400
sg16
g12
sg17
g12
sg18
Vc:\u005cwindows\u005cfonts\u005csymbol.ttf
p672
sg20
g21
sbag1
(g8
g3
NtRp673
(dp674
g11
g28
sg13
VBodoni MT
p675
sg15
I900
sg16
g12
sg17
g12
sg18
VC:\u005cWindows\u005cFonts\u005cBOD_BLAI.TTF
p676
sg20
g21
sbag1
(g8
g3
NtRp677
(dp678
g11
g28
sg13
VLucida Bright
p679
sg15
I400
sg16
g12
sg17
g12
sg18
VC:\u005cWindows\u005cFonts\u005cLBRITEI.TTF
p680
sg20
g21
sbag1
(g8
g3
NtRp681
(dp682
g11
g12
sg13
VSylfaen
p683
sg15
I400
sg16
g12
sg17
g12
sg18
Vc:\u005cwindows\u005cfonts\u005csylfaen.ttf
p684
sg20
g21
sbag1
(g8
g3
NtRp685
(dp686
g11
g12
sg13
VRockwell Condensed
p687
sg15
I700
sg16
g243
sg17
g12
sg18
Vc:\u005cwindows\u005cfonts\u005croccb___.ttf
p688
sg20
g21
sbag1
(g8
g3
NtRp689
(dp690
g11
g12
sg13
VLucida Sans
p691
sg15
I700
sg16
g12
sg17
g12
sg18
VC:\u005cWindows\u005cFonts\u005cLSANSD.TTF
p692
sg20
g21
sbag1
(g8
g3
NtRp693
(dp694
g11
g12
sg13
VTI Uni
p695
sg15
I400
sg16
g12
sg17
g12
sg18
VC:\u005cWindows\u005cFonts\u005cTIUni___.ttf
p696
sg20
g21
sbag1
(g8
g3
NtRp697
(dp698
g11
g28
sg13
VCalibri
p699
sg15
I700
sg16
g12
sg17
g12
sg18
VC:\u005cWindows\u005cFonts\u005ccalibriz.ttf
p700
sg20
g21
sbag1
(g8
g3
NtRp701
(dp702
g11
g12
sg13
VAharoni
p703
sg15
I700
sg16
g12
sg17
g12
sg18
Vc:\u005cwindows\u005cfonts\u005cahronbd.ttf
p704
sg20
g21
sbag1
(g8
g3
NtRp705
(dp706
g11
g28
sg13
VJasmineUPC
p707
sg15
I700
sg16
g12
sg17
g12
sg18
VC:\u005cWindows\u005cFonts\u005cupcjbi.ttf
p708
sg20
g21
sbag1
(g8
g3
NtRp709
(dp710
g11
g12
sg13
VEras Medium ITC
p711
sg15
I500
sg16
g12
sg17
g12
sg18
VC:\u005cWindows\u005cFonts\u005cERASMD.TTF
p712
sg20
g21
sbag1
(g8
g3
NtRp713
(dp714
g11
g28
sg13
VCentury Schoolbook
p715
sg15
I400
sg16
g12
sg17
g12
sg18
Vc:\u005cwindows\u005cfonts\u005cschlbki.ttf
p716
sg20
g21
sbag1
(g8
g3
NtRp717
(dp718
g11
g12
sg13
VEucrosiaUPC
p719
sg15
I400
sg16
g12
sg17
g12
sg18
Vc:\u005cwindows\u005cfonts\u005cupcel.ttf
p720
sg20
g21
sbag1
(g8
g3
NtRp721
(dp722
g11
g12
sg13
VBook Antiqua
p723
sg15
I400
sg16
g12
sg17
g12
sg18
VC:\u005cWindows\u005cFonts\u005cBKANT.TTF
p724
sg20
g21
sbag1
(g8
g3
NtRp725
(dp726
g11
g12
sg13
VAngsana New
p727
sg15
I700
sg16
g12
sg17
g12
sg18
VC:\u005cWindows\u005cFonts\u005cangsab.ttf
p728
sg20
g21
sbag1
(g8
g3
NtRp729
(dp730
g11
g12
sg13
VMoolBoran
p731
sg15
I400
sg16
g12
sg17
g12
sg18
Vc:\u005cwindows\u005cfonts\u005cmoolbor.ttf
p732
sg20
g21
sbag1
(g8
g3
NtRp733
(dp734
g11
g28
sg13
VCambria
p735
sg15
I400
sg16
g12
sg17
g12
sg18
Vc:\u005cwindows\u005cfonts\u005ccambriai.ttf
p736
sg20
g21
sbag1
(g8
g3
NtRp737
(dp738
g11
g12
sg13
VArial
p739
sg15
I400
sg16
g243
sg17
g12
sg18
VC:\u005cWindows\u005cFonts\u005cARIALN.TTF
p740
sg20
g21
sbag1
(g8
g3
NtRp741
(dp742
g11
g28
sg13
VAngsanaUPC
p743
sg15
I400
sg16
g12
sg17
g12
sg18
Vc:\u005cwindows\u005cfonts\u005cangsaui.ttf
p744
sg20
g21
sbag1
(g8
g3
NtRp745
(dp746
g11
g12
sg13
VFranklin Gothic Demi Cond
p747
sg15
I600
sg16
g243
sg17
g12
sg18
VC:\u005cWindows\u005cFonts\u005cFRADMCN.TTF
p748
sg20
g21
sbag1
(g8
g3
NtRp749
(dp750
g11
g28
sg13
VBook Antiqua
p751
sg15
I700
sg16
g12
sg17
g12
sg18
VC:\u005cWindows\u005cFonts\u005cANTQUABI.TTF
p752
sg20
g21
sbag1
(g8
g3
NtRp753
(dp754
g11
g12
sg13
VMicrosoft Tai Le
p755
sg15
I400
sg16
g12
sg17
g12
sg18
VC:\u005cWindows\u005cFonts\u005ctaile.ttf
p756
sg20
g21
sbag1
(g8
g3
NtRp757
(dp758
g11
g28
sg13
VCentury Schoolbook
p759
sg15
I700
sg16
g12
sg17
g12
sg18
VC:\u005cWindows\u005cFonts\u005cSCHLBKBI.TTF
p760
sg20
g21
sbag1
(g8
g3
NtRp761
(dp762
g11
g12
sg13
VBernard MT Condensed
p763
sg15
I400
sg16
g243
sg17
g12
sg18
VC:\u005cWindows\u005cFonts\u005cBERNHC.TTF
p764
sg20
g21
sbag1
(g8
g3
NtRp765
(dp766
g11
g28
sg13
VEucrosiaUPC
p767
sg15
I700
sg16
g12
sg17
g12
sg18
VC:\u005cWindows\u005cFonts\u005cupcebi.ttf
p768
sg20
g21
sbag1
(g8
g3
NtRp769
(dp770
g11
g28
sg13
VBookman Old Style
p771
sg15
I400
sg16
g12
sg17
g12
sg18
Vc:\u005cwindows\u005cfonts\u005cbookosi.ttf
p772
sg20
g21
sbag1
(g8
g3
NtRp773
(dp774
g11
g12
sg13
VLucida Fax
p775
sg15
I700
sg16
g12
sg17
g12
sg18
VC:\u005cWindows\u005cFonts\u005cLFAXD.TTF
p776
sg20
g21
sbag1
(g8
g3
NtRp777
(dp778
g11
g12
sg13
VGloucester MT Extra Condensed
p779
sg15
I400
sg16
g243
sg17
g12
sg18
Vc:\u005cwindows\u005cfonts\u005cglecb.ttf
p780
sg20
g21
sbag1
(g8
g3
NtRp781
(dp782
g11
g12
sg13
VChiller
p783
sg15
I400
sg16
g12
sg17
g12
sg18
VC:\u005cWindows\u005cFonts\u005cCHILLER.TTF
p784
sg20
g21
sbag1
(g8
g3
NtRp785
(dp786
g11
g12
sg13
VGill Sans Ultra Bold Condensed
p787
sg15
I700
sg16
g243
sg17
g12
sg18
VC:\u005cWindows\u005cFonts\u005cGILLUBCD.TTF
p788
sg20
g21
sbag1
(g8
g3
NtRp789
(dp790
g11
g12
sg13
VTi73pc
p791
sg15
I400
sg16
g12
sg17
g12
sg18
Vc:\u005cwindows\u005cfonts\u005cti-73.ttf
p792
sg20
g21
sbag1
(g8
g3
NtRp793
(dp794
g11
g28
sg13
VFreesiaUPC
p795
sg15
I400
sg16
g12
sg17
g12
sg18
Vc:\u005cwindows\u005cfonts\u005cupcfi.ttf
p796
sg20
g21
sbag1
(g8
g3
NtRp797
(dp798
g11
g12
sg13
VFranklin Gothic Medium
p799
sg15
I500
sg16
g12
sg17
g12
sg18
VC:\u005cWindows\u005cFonts\u005cframd.ttf
p800
sg20
g21
sbag1
(g8
g3
NtRp801
(dp802
g11
g28
sg13
VLucida Sans
p803
sg15
I400
sg16
g12
sg17
g12
sg18
VC:\u005cWindows\u005cFonts\u005cLSANSI.TTF
p804
sg20
g21
sbag1
(g8
g3
NtRp805
(dp806
g11
g28
sg13
VKodchiangUPC
p807
sg15
I700
sg16
g12
sg17
g12
sg18
VC:\u005cWindows\u005cFonts\u005cupckbi.ttf
p808
sg20
g21
sbag1
(g8
g3
NtRp809
(dp810
g11
g12
sg13
VCalibri
p811
sg15
I400
sg16
g12
sg17
g12
sg18
Vc:\u005cwindows\u005cfonts\u005ccalibri.ttf
p812
sg20
g21
sbag1
(g8
g3
NtRp813
(dp814
g11
g12
sg13
VFelix Titling
p815
sg15
I400
sg16
g12
sg17
g12
sg18
VC:\u005cWindows\u005cFonts\u005cFELIXTI.TTF
p816
sg20
g21
sbag1
(g8
g3
NtRp817
(dp818
g11
g12
sg13
VVladimir Script
p819
sg15
I400
sg16
g12
sg17
g12
sg18
VC:\u005cWindows\u005cFonts\u005cVLADIMIR.TTF
p820
sg20
g21
sbag1
(g8
g3
NtRp821
(dp822
g11
g12
sg13
VImpact
p823
sg15
I400
sg16
g12
sg17
g12
sg18
VC:\u005cWindows\u005cFonts\u005cimpact.ttf
p824
sg20
g21
sbag1
(g8
g3
NtRp825
(dp826
g11
g12
sg13
VCentaur
p827
sg15
I400
sg16
g12
sg17
g12
sg18
Vc:\u005cwindows\u005cfonts\u005ccentaur.ttf
p828
sg20
g21
sbag1
(g8
g3
NtRp829
(dp830
g11
g12
sg13
VIrisUPC
p831
sg15
I400
sg16
g12
sg17
g12
sg18
Vc:\u005cwindows\u005cfonts\u005cupcil.ttf
p832
sg20
g21
sbag1
(g8
g3
NtRp833
(dp834
g11
g12
sg13
VBroadway
p835
sg15
I400
sg16
g12
sg17
g12
sg18
VC:\u005cWindows\u005cFonts\u005cBROADW.TTF
p836
sg20
g21
sbag1
(g8
g3
NtRp837
(dp838
g11
g12
sg13
VColonna MT
p839
sg15
I400
sg16
g12
sg17
g12
sg18
VC:\u005cWindows\u005cFonts\u005cCOLONNA.TTF
p840
sg20
g21
sbag1
(g8
g3
NtRp841
(dp842
g11
g12
sg13
VGill Sans MT
p843
sg15
I700
sg16
g12
sg17
g12
sg18
VC:\u005cWindows\u005cFonts\u005cGILB____.TTF
p844
sg20
g21
sbag1
(g8
g3
NtRp845
(dp846
g11
g12
sg13
VWingdings
p847
sg15
I400
sg16
g12
sg17
g12
sg18
VC:\u005cWindows\u005cFonts\u005cwingding.ttf
p848
sg20
g21
sbag1
(g8
g3
NtRp849
(dp850
g11
g28
sg13
VCalisto MT
p851
sg15
I400
sg16
g12
sg17
g12
sg18
VC:\u005cWindows\u005cFonts\u005cCALISTI.TTF
p852
sg20
g21
sbag1
(g8
g3
NtRp853
(dp854
g11
g12
sg13
VLatha
p855
sg15
I400
sg16
g12
sg17
g12
sg18
Vc:\u005cwindows\u005cfonts\u005clatha.ttf
p856
sg20
g21
sbag1
(g8
g3
NtRp857
(dp858
g11
g12
sg13
VPerpetua
p859
sg15
I400
sg16
g12
sg17
g12
sg18
Vc:\u005cwindows\u005cfonts\u005cper_____.ttf
p860
sg20
g21
sbag1
(g8
g3
NtRp861
(dp862
g11
g12
sg13
VMangal
p863
sg15
I700
sg16
g12
sg17
g12
sg18
VC:\u005cWindows\u005cFonts\u005cmangalb.ttf
p864
sg20
g21
sbag1
(g8
g3
NtRp865
(dp866
g11
g12
sg13
VTI Uni
p867
sg15
I700
sg16
g12
sg17
g12
sg18
Vc:\u005cwindows\u005cfonts\u005ctiunibd_.ttf
p868
sg20
g21
sbag1
(g8
g3
NtRp869
(dp870
g11
g12
sg13
VVani
p871
sg15
I400
sg16
g12
sg17
g12
sg18
Vc:\u005cwindows\u005cfonts\u005cvani.ttf
p872
sg20
g21
sbag1
(g8
g3
NtRp873
(dp874
g11
g12
sg13
VArial Rounded MT Bold
p875
sg15
I700
sg16
g12
sg17
g12
sg18
Vc:\u005cwindows\u005cfonts\u005carlrdbd.ttf
p876
sg20
g21
sbag1
(g8
g3
NtRp877
(dp878
g11
g12
sg13
VDilleniaUPC
p879
sg15
I400
sg16
g12
sg17
g12
sg18
Vc:\u005cwindows\u005cfonts\u005cupcdl.ttf
p880
sg20
g21
sbag1
(g8
g3
NtRp881
(dp882
g11
g28
sg13
VCalisto MT
p883
sg15
I700
sg16
g12
sg17
g12
sg18
VC:\u005cWindows\u005cFonts\u005cCALISTBI.TTF
p884
sg20
g21
sbag1
(g8
g3
NtRp885
(dp886
g11
g12
sg13
VBernard MT Condensed
p887
sg15
I400
sg16
g243
sg17
g12
sg18
Vc:\u005cwindows\u005cfonts\u005cbernhc.ttf
p888
sg20
g21
sbag1
(g8
g3
NtRp889
(dp890
g11
g12
sg13
VLucida Sans Unicode
p891
sg15
I400
sg16
g12
sg17
g12
sg18
VC:\u005cWindows\u005cFonts\u005cl_10646.ttf
p892
sg20
g21
sbag1
(g8
g3
NtRp893
(dp894
g11
g12
sg13
VCastellar
p895
sg15
I400
sg16
g12
sg17
g12
sg18
Vc:\u005cwindows\u005cfonts\u005ccastelar.ttf
p896
sg20
g21
sbag1
(g8
g3
NtRp897
(dp898
g11
g12
sg13
VMagneto
p899
sg15
I700
sg16
g12
sg17
g12
sg18
Vc:\u005cwindows\u005cfonts\u005cmagnetob.ttf
p900
sg20
g21
sbag1
(g8
g3
NtRp901
(dp902
g11
g12
sg13
VScript MT Bold
p903
sg15
I700
sg16
g12
sg17
g12
sg18
VC:\u005cWindows\u005cFonts\u005cSCRIPTBL.TTF
p904
sg20
g21
sbag1
(g8
g3
NtRp905
(dp906
g11
g12
sg13
VBerlin Sans FB Demi
p907
sg15
I700
sg16
g12
sg17
g12
sg18
VC:\u005cWindows\u005cFonts\u005cBRLNSDB.TTF
p908
sg20
g21
sbag1
(g8
g3
NtRp909
(dp910
g11
g12
sg13
VArial Unicode MS
p911
sg15
I400
sg16
g12
sg17
g12
sg18
Vc:\u005cwindows\u005cfonts\u005carialuni.ttf
p912
sg20
g21
sbag1
(g8
g3
NtRp913
(dp914
g11
g28
sg13
VAparajita
p915
sg15
I700
sg16
g12
sg17
g12
sg18
Vc:\u005cwindows\u005cfonts\u005caparajbi.ttf
p916
sg20
g21
sbag1
(g8
g3
NtRp917
(dp918
g11
g12
sg13
VEbrima
p919
sg15
I700
sg16
g12
sg17
g12
sg18
Vc:\u005cwindows\u005cfonts\u005cebrimabd.ttf
p920
sg20
g21
sbag1
(g8
g3
NtRp921
(dp922
g11
g12
sg13
VSegoe Print
p923
sg15
I400
sg16
g12
sg17
g12
sg18
VC:\u005cWindows\u005cFonts\u005csegoepr.ttf
p924
sg20
g21
sbag1
(g8
g3
NtRp925
(dp926
g11
g12
sg13
VMicrosoft Sans Serif
p927
sg15
I400
sg16
g12
sg17
g12
sg18
VC:\u005cWindows\u005cFonts\u005cmicross.ttf
p928
sg20
g21
sbag1
(g8
g3
NtRp929
(dp930
g11
g12
sg13
VGill Sans Ultra Bold Condensed
p931
sg15
I700
sg16
g243
sg17
g12
sg18
Vc:\u005cwindows\u005cfonts\u005cgillubcd.ttf
p932
sg20
g21
sbag1
(g8
g3
NtRp933
(dp934
g11
g12
sg13
VWingdings 3
p935
sg15
I400
sg16
g12
sg17
g12
sg18
VC:\u005cWindows\u005cFonts\u005cWINGDNG3.TTF
p936
sg20
g21
sbag1
(g8
g3
NtRp937
(dp938
g11
g28
sg13
VKokila
p939
sg15
I700
sg16
g12
sg17
g12
sg18
VC:\u005cWindows\u005cFonts\u005ckokilabi.ttf
p940
sg20
g21
sbag1
(g8
g3
NtRp941
(dp942
g11
g28
sg13
VGill Sans MT
p943
sg15
I700
sg16
g12
sg17
g12
sg18
VC:\u005cWindows\u005cFonts\u005cGILBI___.TTF
p944
sg20
g21
sbag1
(g8
g3
NtRp945
(dp946
g11
g12
sg13
VPalace Script MT
p947
sg15
I400
sg16
g12
sg17
g12
sg18
VC:\u005cWindows\u005cFonts\u005cPALSCRI.TTF
p948
sg20
g21
sbag1
(g8
g3
NtRp949
(dp950
g11
g12
sg13
VSegoe Print
p951
sg15
I700
sg16
g12
sg17
g12
sg18
VC:\u005cWindows\u005cFonts\u005csegoeprb.ttf
p952
sg20
g21
sbag1
(g8
g3
NtRp953
(dp954
g11
g12
sg13
VTI-83p Mini Sans
p955
sg15
I400
sg16
g12
sg17
g12
sg18
Vc:\u005cwindows\u005cfonts\u005cti-83pmini.ttf
p956
sg20
g21
sbag1
(g8
g3
NtRp957
(dp958
g11
g12
sg13
VFreesiaUPC
p959
sg15
I400
sg16
g12
sg17
g12
sg18
VC:\u005cWindows\u005cFonts\u005cupcfl.ttf
p960
sg20
g21
sbag1
(g8
g3
NtRp961
(dp962
g11
g28
sg13
VPerpetua
p963
sg15
I400
sg16
g12
sg17
g12
sg18
Vc:\u005cwindows\u005cfonts\u005cperi____.ttf
p964
sg20
g21
sbag1
(g8
g3
NtRp965
(dp966
g11
g12
sg13
VMiriam Fixed
p967
sg15
I400
sg16
g12
sg17
g12
sg18
Vc:\u005cwindows\u005cfonts\u005cmriamc.ttf
p968
sg20
g21
sbag1
(g8
g3
NtRp969
(dp970
g11
g28
sg13
VIrisUPC
p971
sg15
I400
sg16
g12
sg17
g12
sg18
Vc:\u005cwindows\u005cfonts\u005cupcii.ttf
p972
sg20
g21
sbag1
(g8
g3
NtRp973
(dp974
g11
g12
sg13
VCopperplate Gothic Light
p975
sg15
I200
sg16
g12
sg17
g12
sg18
Vc:\u005cwindows\u005cfonts\u005ccoprgtl.ttf
p976
sg20
g21
sbag1
(g8
g3
NtRp977
(dp978
g11
g28
sg13
VTw Cen MT
p979
sg15
I400
sg16
g12
sg17
g12
sg18
Vc:\u005cwindows\u005cfonts\u005ctcmi____.ttf
p980
sg20
g21
sbag1
(g8
g3
NtRp981
(dp982
g11
g12
sg13
VTi92Pluspc
p983
sg15
I400
sg16
g12
sg17
g12
sg18
VC:\u005cWindows\u005cFonts\u005cTI-92p.TTF
p984
sg20
g21
sbag1
(g8
g3
NtRp985
(dp986
g11
g28
sg13
VCordia New
p987
sg15
I700
sg16
g12
sg17
g12
sg18
VC:\u005cWindows\u005cFonts\u005ccordiaz.ttf
p988
sg20
g21
sbag1
(g8
g3
NtRp989
(dp990
g11
g12
sg13
VTimes New Roman
p991
sg15
I500
sg16
g12
sg17
g12
sg18
Vc:\u005cwindows\u005cfonts\u005ctimes.ttf
p992
sg20
g21
sbag1
(g8
g3
NtRp993
(dp994
g11
g12
sg13
VWingdings 2
p995
sg15
I400
sg16
g12
sg17
g12
sg18
Vc:\u005cwindows\u005cfonts\u005cwingdng2.ttf
p996
sg20
g21
sbag1
(g8
g3
NtRp997
(dp998
g11
g12
sg13
VConsolas
p999
sg15
I700
sg16
g12
sg17
g12
sg18
Vc:\u005cwindows\u005cfonts\u005cconsolab.ttf
p1000
sg20
g21
sbag1
(g8
g3
NtRp1001
(dp1002
g11
g12
sg13
VVijaya
p1003
sg15
I700
sg16
g12
sg17
g12
sg18
Vc:\u005cwindows\u005cfonts\u005cvijayab.ttf
p1004
sg20
g21
sbag1
(g8
g3
NtRp1005
(dp1006
g11
g28
sg13
VCourier New
p1007
sg15
I400
sg16
g12
sg17
g12
sg18
Vc:\u005cwindows\u005cfonts\u005ccouri.ttf
p1008
sg20
g21
sbag1
(g8
g3
NtRp1009
(dp1010
g11
g12
sg13
VEuphemia
p1011
sg15
I400
sg16
g12
sg17
g12
sg18
VC:\u005cWindows\u005cFonts\u005ceuphemia.ttf
p1012
sg20
g21
sbag1
(g8
g3
NtRp1013
(dp1014
g11
g28
sg13
VCordiaUPC
p1015
sg15
I700
sg16
g12
sg17
g12
sg18
Vc:\u005cwindows\u005cfonts\u005ccordiauz.ttf
p1016
sg20
g21
sbag1
(g8
g3
NtRp1017
(dp1018
g11
g12
sg13
VLeelawadee
p1019
sg15
I400
sg16
g12
sg17
g12
sg18
Vc:\u005cwindows\u005cfonts\u005cleelawad.ttf
p1020
sg20
g21
sbag1
(g8
g3
NtRp1021
(dp1022
g11
g12
sg13
VArial
p1023
sg15
I400
sg16
g12
sg17
g12
sg18
Vc:\u005cwindows\u005cfonts\u005carial.ttf
p1024
sg20
g21
sbag1
(g8
g3
NtRp1025
(dp1026
g11
g28
sg13
VBodoni MT
p1027
sg15
I400
sg16
g12
sg17
g12
sg18
Vc:\u005cwindows\u005cfonts\u005cbod_i.ttf
p1028
sg20
g21
sbag1
(g8
g3
NtRp1029
(dp1030
g11
g12
sg13
VShonar Bangla
p1031
sg15
I700
sg16
g12
sg17
g12
sg18
Vc:\u005cwindows\u005cfonts\u005cshonarb.ttf
p1032
sg20
g21
sbag1
(g8
g3
NtRp1033
(dp1034
g11
g28
sg13
VConsolas
p1035
sg15
I400
sg16
g12
sg17
g12
sg18
VC:\u005cWindows\u005cFonts\u005cconsolai.ttf
p1036
sg20
g21
sbag1
(g8
g3
NtRp1037
(dp1038
g11
g12
sg13
VEngravers MT
p1039
sg15
I400
sg16
g12
sg17
g12
sg18
Vc:\u005cwindows\u005cfonts\u005cengr.ttf
p1040
sg20
g21
sbag1
(g8
g3
NtRp1041
(dp1042
g11
g28
sg13
VLucida Fax
p1043
sg15
I700
sg16
g12
sg17
g12
sg18
VC:\u005cWindows\u005cFonts\u005cLFAXDI.TTF
p1044
sg20
g21
sbag1
(g8
g3
NtRp1045
(dp1046
g11
g12
sg13
VCentury Gothic
p1047
sg15
I400
sg16
g12
sg17
g12
sg18
VC:\u005cWindows\u005cFonts\u005cGOTHIC.TTF
p1048
sg20
g21
sbag1
(g8
g3
NtRp1049
(dp1050
g11
g12
sg13
VBauhaus 93
p1051
sg15
I400
sg16
g12
sg17
g12
sg18
VC:\u005cWindows\u005cFonts\u005cBAUHS93.TTF
p1052
sg20
g21
sbag1
(g8
g3
NtRp1053
(dp1054
g11
g12
sg13
VHaettenschweiler
p1055
sg15
I400
sg16
g12
sg17
g12
sg18
VC:\u005cWindows\u005cFonts\u005cHATTEN.TTF
p1056
sg20
g21
sbag1
(g8
g3
NtRp1057
(dp1058
g11
g12
sg13
VMicrosoft JhengHei
p1059
sg15
I400
sg16
g12
sg17
g12
sg18
Vc:\u005cwindows\u005cfonts\u005cmsjh.ttf
p1060
sg20
g21
sbag1
(g8
g3
NtRp1061
(dp1062
g11
g12
sg13
VMS Reference Sans Serif
p1063
sg15
I400
sg16
g12
sg17
g12
sg18
Vc:\u005cwindows\u005cfonts\u005crefsan.ttf
p1064
sg20
g21
sbag1
(g8
g3
NtRp1065
(dp1066
g11
g12
sg13
VBookman Old Style
p1067
sg15
I700
sg16
g12
sg17
g12
sg18
Vc:\u005cwindows\u005cfonts\u005cbookosb.ttf
p1068
sg20
g21
sbag1
(g8
g3
NtRp1069
(dp1070
g11
g12
sg13
VBrowalliaUPC
p1071
sg15
I700
sg16
g12
sg17
g12
sg18
Vc:\u005cwindows\u005cfonts\u005cbrowaub.ttf
p1072
sg20
g21
sbag1
(g8
g3
NtRp1073
(dp1074
g11
g28
sg13
VDilleniaUPC
p1075
sg15
I700
sg16
g12
sg17
g12
sg18
Vc:\u005cwindows\u005cfonts\u005cupcdbi.ttf
p1076
sg20
g21
sbag1
(g8
g3
NtRp1077
(dp1078
g11
g12
sg13
VFelix Titling
p1079
sg15
I400
sg16
g12
sg17
g12
sg18
Vc:\u005cwindows\u005cfonts\u005cfelixti.ttf
p1080
sg20
g21
sbag1
(g8
g3
NtRp1081
(dp1082
g11
g28
sg13
VKokila
p1083
sg15
I400
sg16
g12
sg17
g12
sg18
VC:\u005cWindows\u005cFonts\u005ckokilai.ttf
p1084
sg20
g21
sbag1
(g8
g3
NtRp1085
(dp1086
g11
g12
sg13
VSegoe Script
p1087
sg15
I400
sg16
g12
sg17
g12
sg18
VC:\u005cWindows\u005cFonts\u005csegoesc.ttf
p1088
sg20
g21
sbag1
(g8
g3
NtRp1089
(dp1090
g11
g28
sg13
VPalatino Linotype
p1091
sg15
I400
sg16
g12
sg17
g12
sg18
Vc:\u005cwindows\u005cfonts\u005cpalai.ttf
p1092
sg20
g21
sbag1
(g8
g3
NtRp1093
(dp1094
g11
g28
sg13
VFranklin Gothic Heavy
p1095
sg15
I800
sg16
g12
sg17
g12
sg18
Vc:\u005cwindows\u005cfonts\u005cfrahvit.ttf
p1096
sg20
g21
sbag1
(g8
g3
NtRp1097
(dp1098
g11
g12
sg13
VMalgun Gothic
p1099
sg15
I400
sg16
g12
sg17
g12
sg18
VC:\u005cWindows\u005cFonts\u005cmalgun.ttf
p1100
sg20
g21
sbag1
(g8
g3
NtRp1101
(dp1102
g11
g12
sg13
VBerlin Sans FB
p1103
sg15
I400
sg16
g12
sg17
g12
sg18
VC:\u005cWindows\u005cFonts\u005cBRLNSR.TTF
p1104
sg20
g21
sbag1
(g8
g3
NtRp1105
(dp1106
g11
g12
sg13
VCalibri
p1107
sg15
I700
sg16
g12
sg17
g12
sg18
Vc:\u005cwindows\u005cfonts\u005ccalibrib.ttf
p1108
sg20
g21
sbag1
(g8
g3
NtRp1109
(dp1110
g11
g12
sg13
VTi86pc
p1111
sg15
I400
sg16
g12
sg17
g12
sg18
VC:\u005cWindows\u005cFonts\u005cTI-86.TTF
p1112
sg20
g21
sbag1
(g8
g3
NtRp1113
(dp1114
g11
g12
sg13
VJasmineUPC
p1115
sg15
I700
sg16
g12
sg17
g12
sg18
Vc:\u005cwindows\u005cfonts\u005cupcjb.ttf
p1116
sg20
g21
sbag1
(g8
g3
NtRp1117
(dp1118
g11
g12
sg13
VDavid
p1119
sg15
I700
sg16
g12
sg17
g12
sg18
Vc:\u005cwindows\u005cfonts\u005cdavidbd.ttf
p1120
sg20
g21
sbag1
(g8
g3
NtRp1121
(dp1122
g11
g12
sg13
VTI-92p Mini Sans
p1123
sg15
I400
sg16
g12
sg17
g12
sg18
Vc:\u005cwindows\u005cfonts\u005cti-92pmini.ttf
p1124
sg20
g21
sbag1
(g8
g3
NtRp1125
(dp1126
g11
g28
sg13
VConstantia
p1127
sg15
I400
sg16
g12
sg17
g12
sg18
VC:\u005cWindows\u005cFonts\u005cconstani.ttf
p1128
sg20
g21
sbag1
(g8
g3
NtRp1129
(dp1130
g11
g28
sg13
VPerpetua
p1131
sg15
I400
sg16
g12
sg17
g12
sg18
VC:\u005cWindows\u005cFonts\u005cPERI____.TTF
p1132
sg20
g21
sbag1
(g8
g3
NtRp1133
(dp1134
g11
g12
sg13
VBodoni MT
p1135
sg15
I700
sg16
g12
sg17
g12
sg18
Vc:\u005cwindows\u005cfonts\u005cbod_b.ttf
p1136
sg20
g21
sbag1
(g8
g3
NtRp1137
(dp1138
g11
g12
sg13
VMS Mincho
p1139
sg15
I400
sg16
g12
sg17
g12
sg18
Vc:\u005cwindows\u005cfonts\u005cmsmincho.ttf
p1140
sg20
g21
sbag1
(g8
g3
NtRp1141
(dp1142
g11
g12
sg13
VCentury Schoolbook
p1143
sg15
I700
sg16
g12
sg17
g12
sg18
Vc:\u005cwindows\u005cfonts\u005cschlbkb.ttf
p1144
sg20
g21
sbag1
(g8
g3
NtRp1145
(dp1146
g11
g12
sg13
VChiller
p1147
sg15
I400
sg16
g12
sg17
g12
sg18
Vc:\u005cwindows\u005cfonts\u005cchiller.ttf
p1148
sg20
g21
sbag1
(g8
g3
NtRp1149
(dp1150
g11
g12
sg13
VBook Antiqua
p1151
sg15
I700
sg16
g12
sg17
g12
sg18
VC:\u005cWindows\u005cFonts\u005cANTQUAB.TTF
p1152
sg20
g21
sbag1
(g8
g3
NtRp1153
(dp1154
g11
g12
sg13
VConstantia
p1155
sg15
I400
sg16
g12
sg17
g12
sg18
Vc:\u005cwindows\u005cfonts\u005cconstan.ttf
p1156
sg20
g21
sbag1
(g8
g3
NtRp1157
(dp1158
g11
g28
sg13
VArial
p1159
sg15
I400
sg16
g243
sg17
g12
sg18
VC:\u005cWindows\u005cFonts\u005cARIALNI.TTF
p1160
sg20
g21
sbag1
(g8
g3
NtRp1161
(dp1162
g11
g12
sg13
VSimplified Arabic Fixed
p1163
sg15
I400
sg16
g12
sg17
g12
sg18
Vc:\u005cwindows\u005cfonts\u005csimpfxo.ttf
p1164
sg20
g21
sbag1
(g8
g3
NtRp1165
(dp1166
g11
g12
sg13
VMangal
p1167
sg15
I400
sg16
g12
sg17
g12
sg18
Vc:\u005cwindows\u005cfonts\u005cmangal.ttf
p1168
sg20
g21
sbag1
(g8
g3
NtRp1169
(dp1170
g11
g12
sg13
VTrebuchet MS
p1171
sg15
I400
sg16
g12
sg17
g12
sg18
Vc:\u005cwindows\u005cfonts\u005ctrebuc.ttf
p1172
sg20
g21
sbag1
(g8
g3
NtRp1173
(dp1174
g11
g12
sg13
VSimHei
p1175
sg15
I400
sg16
g12
sg17
g12
sg18
Vc:\u005cwindows\u005cfonts\u005csimhei.ttf
p1176
sg20
g21
sbag1
(g8
g3
NtRp1177
(dp1178
g11
g12
sg13
VMatura MT Script Capitals
p1179
sg15
I400
sg16
g12
sg17
g12
sg18
VC:\u005cWindows\u005cFonts\u005cMATURASC.TTF
p1180
sg20
g21
sbag1
(g8
g3
NtRp1181
(dp1182
g11
g12
sg13
VGill Sans MT
p1183
sg15
I400
sg16
g12
sg17
g12
sg18
Vc:\u005cwindows\u005cfonts\u005cgil_____.ttf
p1184
sg20
g21
sbag1
(g8
g3
NtRp1185
(dp1186
g11
g12
sg13
VLao UI
p1187
sg15
I400
sg16
g12
sg17
g12
sg18
Vc:\u005cwindows\u005cfonts\u005claoui.ttf
p1188
sg20
g21
sbag1
(g8
g3
NtRp1189
(dp1190
g11
g12
sg13
VGill Sans MT Ext Condensed Bold
p1191
sg15
I700
sg16
g243
sg17
g12
sg18
VC:\u005cWindows\u005cFonts\u005cGLSNECB.TTF
p1192
sg20
g21
sbag1
(g8
g3
NtRp1193
(dp1194
g11
g12
sg13
VRockwell
p1195
sg15
I700
sg16
g12
sg17
g12
sg18
Vc:\u005cwindows\u005cfonts\u005crockb.ttf
p1196
sg20
g21
sbag1
(g8
g3
NtRp1197
(dp1198
g11
g28
sg13
VBrush Script MT
p1199
sg15
I400
sg16
g12
sg17
g12
sg18
VC:\u005cWindows\u005cFonts\u005cBRUSHSCI.TTF
p1200
sg20
g21
sbag1
(g8
g3
NtRp1201
(dp1202
g11
g12
sg13
VKartika
p1203
sg15
I400
sg16
g12
sg17
g12
sg18
VC:\u005cWindows\u005cFonts\u005ckartika.ttf
p1204
sg20
g21
sbag1
(g8
g3
NtRp1205
(dp1206
g11
g28
sg13
VBrowalliaUPC
p1207
sg15
I400
sg16
g12
sg17
g12
sg18
VC:\u005cWindows\u005cFonts\u005cbrowaui.ttf
p1208
sg20
g21
sbag1
(g8
g3
NtRp1209
(dp1210
g11
g12
sg13
VDaunPenh
p1211
sg15
I400
sg16
g12
sg17
g12
sg18
Vc:\u005cwindows\u005cfonts\u005cdaunpenh.ttf
p1212
sg20
g21
sbag1
(g8
g3
NtRp1213
(dp1214
g11
g12
sg13
VCalifornian FB
p1215
sg15
I400
sg16
g12
sg17
g12
sg18
Vc:\u005cwindows\u005cfonts\u005ccalifr.ttf
p1216
sg20
g21
sbag1
(g8
g3
NtRp1217
(dp1218
g11
g12
sg13
VCalisto MT
p1219
sg15
I400
sg16
g12
sg17
g12
sg18
VC:\u005cWindows\u005cFonts\u005cCALIST.TTF
p1220
sg20
g21
sbag1
(g8
g3
NtRp1221
(dp1222
g11
g12
sg13
VTraditional Arabic
p1223
sg15
I700
sg16
g12
sg17
g12
sg18
Vc:\u005cwindows\u005cfonts\u005ctradbdo.ttf
p1224
sg20
g21
sbag1
(g8
g3
NtRp1225
(dp1226
g11
g12
sg13
VArial
p1227
sg15
I900
sg16
g12
sg17
g12
sg18
VC:\u005cWindows\u005cFonts\u005cariblk.ttf
p1228
sg20
g21
sbag1
(g8
g3
NtRp1229
(dp1230
g11
g12
sg13
VCentury Schoolbook
p1231
sg15
I400
sg16
g12
sg17
g12
sg18
Vc:\u005cwindows\u005cfonts\u005ccenscbk.ttf
p1232
sg20
g21
sbag1
(g8
g3
NtRp1233
(dp1234
g11
g12
sg13
VCorbel
p1235
sg15
I400
sg16
g12
sg17
g12
sg18
VC:\u005cWindows\u005cFonts\u005ccorbel.ttf
p1236
sg20
g21
sbag1
(g8
g3
NtRp1237
(dp1238
g11
g12
sg13
VGloucester MT Extra Condensed
p1239
sg15
I400
sg16
g243
sg17
g12
sg18
VC:\u005cWindows\u005cFonts\u005cGLECB.TTF
p1240
sg20
g21
sbag1
(g8
g3
NtRp1241
(dp1242
g11
g12
sg13
VGautami
p1243
sg15
I400
sg16
g12
sg17
g12
sg18
VC:\u005cWindows\u005cFonts\u005cgautami.ttf
p1244
sg20
g21
sbag1
(g8
g3
NtRp1245
(dp1246
g11
g12
sg13
VNiagara Solid
p1247
sg15
I400
sg16
g12
sg17
g12
sg18
VC:\u005cWindows\u005cFonts\u005cNIAGSOL.TTF
p1248
sg20
g21
sbag1
(g8
g3
NtRp1249
(dp1250
g11
g12
sg13
VTi92Pluspc
p1251
sg15
I700
sg16
g12
sg17
g12
sg18
VC:\u005cWindows\u005cFonts\u005cTI-92PB.TTF
p1252
sg20
g21
sbag1
(g8
g3
NtRp1253
(dp1254
g11
g12
sg13
VMicrosoft Yi Baiti
p1255
sg15
I400
sg16
g12
sg17
g12
sg18
VC:\u005cWindows\u005cFonts\u005cmsyi.ttf
p1256
sg20
g21
sbag1
(g8
g3
NtRp1257
(dp1258
g11
g12
sg13
VLevenim MT
p1259
sg15
I400
sg16
g12
sg17
g12
sg18
VC:\u005cWindows\u005cFonts\u005clvnm.ttf
p1260
sg20
g21
sbag1
(g8
g3
NtRp1261
(dp1262
g11
g12
sg13
VBookman Old Style
p1263
sg15
I700
sg16
g12
sg17
g12
sg18
VC:\u005cWindows\u005cFonts\u005cBOOKOSB.TTF
p1264
sg20
g21
sbag1
(g8
g3
NtRp1265
(dp1266
g11
g12
sg13
VDilleniaUPC
p1267
sg15
I700
sg16
g12
sg17
g12
sg18
Vc:\u005cwindows\u005cfonts\u005cupcdb.ttf
p1268
sg20
g21
sbag1
(g8
g3
NtRp1269
(dp1270
g11
g28
sg13
VTw Cen MT
p1271
sg15
I700
sg16
g12
sg17
g12
sg18
Vc:\u005cwindows\u005cfonts\u005ctcbi____.ttf
p1272
sg20
g21
sbag1
(g8
g3
NtRp1273
(dp1274
g11
g12
sg13
VLilyUPC
p1275
sg15
I700
sg16
g12
sg17
g12
sg18
VC:\u005cWindows\u005cFonts\u005cupclb.ttf
p1276
sg20
g21
sbag1
(g8
g3
NtRp1277
(dp1278
g11
g12
sg13
VVerdana
p1279
sg15
I700
sg16
g12
sg17
g12
sg18
Vc:\u005cwindows\u005cfonts\u005cverdanab.ttf
p1280
sg20
g21
sbag1
(g8
g3
NtRp1281
(dp1282
g11
g12
sg13
VMicrosoft PhagsPa
p1283
sg15
I700
sg16
g12
sg17
g12
sg18
VC:\u005cWindows\u005cFonts\u005cphagspab.ttf
p1284
sg20
g21
sbag1
(g8
g3
NtRp1285
(dp1286
g11
g28
sg13
VCourier New
p1287
sg15
I700
sg16
g12
sg17
g12
sg18
Vc:\u005cwindows\u005cfonts\u005ccourbi.ttf
p1288
sg20
g21
sbag1
(g8
g3
NtRp1289
(dp1290
g11
g12
sg13
VMicrosoft PhagsPa
p1291
sg15
I400
sg16
g12
sg17
g12
sg18
Vc:\u005cwindows\u005cfonts\u005cphagspa.ttf
p1292
sg20
g21
sbag1
(g8
g3
NtRp1293
(dp1294
g11
g12
sg13
VWingdings 3
p1295
sg15
I400
sg16
g12
sg17
g12
sg18
Vc:\u005cwindows\u005cfonts\u005cwingdng3.ttf
p1296
sg20
g21
sbag1
(g8
g3
NtRp1297
(dp1298
g11
g12
sg13
VIrisUPC
p1299
sg15
I700
sg16
g12
sg17
g12
sg18
VC:\u005cWindows\u005cFonts\u005cupcib.ttf
p1300
sg20
g21
sbag1
(g8
g3
NtRp1301
(dp1302
g11
g12
sg13
VCalisto MT
p1303
sg15
I700
sg16
g12
sg17
g12
sg18
Vc:\u005cwindows\u005cfonts\u005ccalistb.ttf
p1304
sg20
g21
sbag1
(g8
g3
NtRp1305
(dp1306
g11
g12
sg13
VJuice ITC
p1307
sg15
I400
sg16
g12
sg17
g12
sg18
VC:\u005cWindows\u005cFonts\u005cJUICE___.TTF
p1308
sg20
g21
sbag1
(g8
g3
NtRp1309
(dp1310
g11
g12
sg13
VShruti
p1311
sg15
I400
sg16
g12
sg17
g12
sg18
VC:\u005cWindows\u005cFonts\u005cshruti.ttf
p1312
sg20
g21
sbag1
(g8
g3
NtRp1313
(dp1314
g11
g28
sg13
VCalisto MT
p1315
sg15
I400
sg16
g12
sg17
g12
sg18
Vc:\u005cwindows\u005cfonts\u005ccalisti.ttf
p1316
sg20
g21
sbag1
(g8
g3
NtRp1317
(dp1318
g11
g12
sg13
VAngsana New
p1319
sg15
I400
sg16
g12
sg17
g12
sg18
VC:\u005cWindows\u005cFonts\u005cangsa.ttf
p1320
sg20
g21
sbag1
(g8
g3
NtRp1321
(dp1322
g11
g12
sg13
VBradley Hand ITC
p1323
sg15
I400
sg16
g12
sg17
g12
sg18
VC:\u005cWindows\u005cFonts\u005cBRADHITC.TTF
p1324
sg20
g21
sbag1
(g8
g3
NtRp1325
(dp1326
g11
g12
sg13
VViner Hand ITC
p1327
sg15
I400
sg16
g12
sg17
g12
sg18
Vc:\u005cwindows\u005cfonts\u005cvineritc.ttf
p1328
sg20
g21
sbag1
(g8
g3
NtRp1329
(dp1330
g11
g12
sg13
VJokerman
p1331
sg15
I400
sg16
g12
sg17
g12
sg18
Vc:\u005cwindows\u005cfonts\u005cjokerman.ttf
p1332
sg20
g21
sbag1
(g8
g3
NtRp1333
(dp1334
g11
g28
sg13
VLucida Handwriting
p1335
sg15
I400
sg16
g12
sg17
g12
sg18
VC:\u005cWindows\u005cFonts\u005cLHANDW.TTF
p1336
sg20
g21
sbag1
(g8
g3
NtRp1337
(dp1338
g11
g12
sg13
VSegoe UI
p1339
sg15
I700
sg16
g12
sg17
g12
sg18
VC:\u005cWindows\u005cFonts\u005csegoeuib.ttf
p1340
sg20
g21
sbag1
(g8
g3
NtRp1341
(dp1342
g11
g12
sg13
VTi89pc
p1343
sg15
I700
sg16
g12
sg17
g12
sg18
Vc:\u005cwindows\u005cfonts\u005cti-89bd.ttf
p1344
sg20
g21
sbag1
(g8
g3
NtRp1345
(dp1346
g11
g28
sg13
VCandara
p1347
sg15
I700
sg16
g12
sg17
g12
sg18
VC:\u005cWindows\u005cFonts\u005cCandaraz.ttf
p1348
sg20
g21
sbag1
(g8
g3
NtRp1349
(dp1350
g11
g12
sg13
VBlackadder ITC
p1351
sg15
I900
sg16
g12
sg17
g12
sg18
Vc:\u005cwindows\u005cfonts\u005citcblkad.ttf
p1352
sg20
g21
sbag1
(g8
g3
NtRp1353
(dp1354
g11
g28
sg13
VBodoni MT
p1355
sg15
I700
sg16
g243
sg17
g12
sg18
VC:\u005cWindows\u005cFonts\u005cBOD_CBI.TTF
p1356
sg20
g21
sbag1
(g8
g3
NtRp1357
(dp1358
g11
g12
sg13
VBaskerville Old Face
p1359
sg15
I400
sg16
g12
sg17
g12
sg18
Vc:\u005cwindows\u005cfonts\u005cbaskvill.ttf
p1360
sg20
g21
sbag1
(g8
g3
NtRp1361
(dp1362
g11
g12
sg13
VLucida Fax
p1363
sg15
I400
sg16
g12
sg17
g12
sg18
VC:\u005cWindows\u005cFonts\u005cLFAX.TTF
p1364
sg20
g21
sbag1
(g8
g3
NtRp1365
(dp1366
g11
g12
sg13
VAparajita
p1367
sg15
I700
sg16
g12
sg17
g12
sg18
VC:\u005cWindows\u005cFonts\u005caparajb.ttf
p1368
sg20
g21
sbag1
(g8
g3
NtRp1369
(dp1370
g11
g28
sg13
VRockwell
p1371
sg15
I400
sg16
g12
sg17
g12
sg18
Vc:\u005cwindows\u005cfonts\u005crocki.ttf
p1372
sg20
g21
sbag1
(g8
g3
NtRp1373
(dp1374
g11
g28
sg13
VBook Antiqua
p1375
sg15
I400
sg16
g12
sg17
g12
sg18
VC:\u005cWindows\u005cFonts\u005cANTQUAI.TTF
p1376
sg20
g21
sbag1
(g8
g3
NtRp1377
(dp1378
g11
g12
sg13
VBook Antiqua
p1379
sg15
I400
sg16
g12
sg17
g12
sg18
Vc:\u005cwindows\u005cfonts\u005cbkant.ttf
p1380
sg20
g21
sbag1
(g8
g3
NtRp1381
(dp1382
g11
g28
sg13
VBodoni MT
p1383
sg15
I400
sg16
g12
sg17
g12
sg18
VC:\u005cWindows\u005cFonts\u005cBOD_I.TTF
p1384
sg20
g21
sbag1
(g8
g3
NtRp1385
(dp1386
g11
g12
sg13
VLucida Sans
p1387
sg15
I400
sg16
g12
sg17
g12
sg18
Vc:\u005cwindows\u005cfonts\u005clsans.ttf
p1388
sg20
g21
sbag1
(g8
g3
NtRp1389
(dp1390
g11
g12
sg13
VTraditional Arabic
p1391
sg15
I400
sg16
g12
sg17
g12
sg18
Vc:\u005cwindows\u005cfonts\u005ctrado.ttf
p1392
sg20
g21
sbag1
(g8
g3
NtRp1393
(dp1394
g11
g12
sg13
VGaramond
p1395
sg15
I700
sg16
g12
sg17
g12
sg18
Vc:\u005cwindows\u005cfonts\u005cgarabd.ttf
p1396
sg20
g21
sbag1
(g8
g3
NtRp1397
(dp1398
g11
g12
sg13
VMicrosoft Uighur
p1399
sg15
I400
sg16
g12
sg17
g12
sg18
VC:\u005cWindows\u005cFonts\u005cmsuighur.ttf
p1400
sg20
g21
sbag1
(g8
g3
NtRp1401
(dp1402
g11
g12
sg13
VCourier New
p1403
sg15
I700
sg16
g12
sg17
g12
sg18
VC:\u005cWindows\u005cFonts\u005ccourbd.ttf
p1404
sg20
g21
sbag1
(g8
g3
NtRp1405
(dp1406
g11
g12
sg13
VSnap ITC
p1407
sg15
I400
sg16
g12
sg17
g12
sg18
VC:\u005cWindows\u005cFonts\u005cSNAP____.TTF
p1408
sg20
g21
sbag1
(g8
g3
NtRp1409
(dp1410
g11
g12
sg13
VGisha
p1411
sg15
I400
sg16
g12
sg17
g12
sg18
Vc:\u005cwindows\u005cfonts\u005cgisha.ttf
p1412
sg20
g21
sbag1
(g8
g3
NtRp1413
(dp1414
g11
g12
sg13
VCalisto MT
p1415
sg15
I400
sg16
g12
sg17
g12
sg18
Vc:\u005cwindows\u005cfonts\u005ccalist.ttf
p1416
sg20
g21
sbag1
(g8
g3
NtRp1417
(dp1418
g11
g12
sg13
VCurlz MT
p1419
sg15
I400
sg16
g12
sg17
g12
sg18
Vc:\u005cwindows\u005cfonts\u005ccurlz___.ttf
p1420
sg20
g21
sbag1
(g8
g3
NtRp1421
(dp1422
g11
g28
sg13
VArial
p1423
sg15
I700
sg16
g12
sg17
g12
sg18
Vc:\u005cwindows\u005cfonts\u005carialbi.ttf
p1424
sg20
g21
sbag1
(g8
g3
NtRp1425
(dp1426
g11
g28
sg13
VTrebuchet MS
p1427
sg15
I400
sg16
g12
sg17
g12
sg18
Vc:\u005cwindows\u005cfonts\u005ctrebucit.ttf
p1428
sg20
g21
sbag1
(g8
g3
NtRp1429
(dp1430
g11
g28
sg13
VBookman Old Style
p1431
sg15
I400
sg16
g12
sg17
g12
sg18
VC:\u005cWindows\u005cFonts\u005cBOOKOSI.TTF
p1432
sg20
g21
sbag1
(g8
g3
NtRp1433
(dp1434
g11
g12
sg13
VBritannic Bold
p1435
sg15
I700
sg16
g12
sg17
g12
sg18
Vc:\u005cwindows\u005cfonts\u005cbritanic.ttf
p1436
sg20
g21
sbag1
(g8
g3
NtRp1437
(dp1438
g11
g12
sg13
VRockwell
p1439
sg15
I700
sg16
g12
sg17
g12
sg18
VC:\u005cWindows\u005cFonts\u005cROCKB.TTF
p1440
sg20
g21
sbag1
(g8
g3
NtRp1441
(dp1442
g11
g12
sg13
VPerpetua Titling MT
p1443
sg15
I200
sg16
g12
sg17
g12
sg18
Vc:\u005cwindows\u005cfonts\u005cpertili.ttf
p1444
sg20
g21
sbag1
(g8
g3
NtRp1445
(dp1446
g11
g12
sg13
VCalifornian FB
p1447
sg15
I700
sg16
g12
sg17
g12
sg18
VC:\u005cWindows\u005cFonts\u005cCALIFB.TTF
p1448
sg20
g21
sbag1
(g8
g3
NtRp1449
(dp1450
g11
g12
sg13
VSimSun-ExtB
p1451
sg15
I400
sg16
g12
sg17
g12
sg18
Vc:\u005cwindows\u005cfonts\u005csimsunb.ttf
p1452
sg20
g21
sbag1
(g8
g3
NtRp1453
(dp1454
g11
g12
sg13
VShruti
p1455
sg15
I700
sg16
g12
sg17
g12
sg18
Vc:\u005cwindows\u005cfonts\u005cshrutib.ttf
p1456
sg20
g21
sbag1
(g8
g3
NtRp1457
(dp1458
g11
g12
sg13
VTw Cen MT Condensed Extra Bold
p1459
sg15
I700
sg16
g243
sg17
g12
sg18
VC:\u005cWindows\u005cFonts\u005cTCCEB.TTF
p1460
sg20
g21
sbag1
(g8
g3
NtRp1461
(dp1462
g11
g12
sg13
VMS Reference Sans Serif
p1463
sg15
I400
sg16
g12
sg17
g12
sg18
VC:\u005cWindows\u005cFonts\u005cREFSAN.TTF
p1464
sg20
g21
sbag1
(g8
g3
NtRp1465
(dp1466
g11
g12
sg13
VBauhaus 93
p1467
sg15
I400
sg16
g12
sg17
g12
sg18
Vc:\u005cwindows\u005cfonts\u005cbauhs93.ttf
p1468
sg20
g21
sbag1
(g8
g3
NtRp1469
(dp1470
g11
g28
sg13
VLucida Calligraphy
p1471
sg15
I400
sg16
g12
sg17
g12
sg18
Vc:\u005cwindows\u005cfonts\u005clcallig.ttf
p1472
sg20
g21
sbag1
(g8
g3
NtRp1473
(dp1474
g11
g57
sg13
VLucida Sans Typewriter
p1475
sg15
I700
sg16
g12
sg17
g12
sg18
VC:\u005cWindows\u005cFonts\u005cLTYPEBO.TTF
p1476
sg20
g21
sbag1
(g8
g3
NtRp1477
(dp1478
g11
g12
sg13
VColonna MT
p1479
sg15
I400
sg16
g12
sg17
g12
sg18
Vc:\u005cwindows\u005cfonts\u005ccolonna.ttf
p1480
sg20
g21
sbag1
(g8
g3
NtRp1481
(dp1482
g11
g28
sg13
VTimes New Roman
p1483
sg15
I700
sg16
g12
sg17
g12
sg18
Vc:\u005cwindows\u005cfonts\u005ctimesbi.ttf
p1484
sg20
g21
sbag1
(g8
g3
NtRp1485
(dp1486
g11
g12
sg13
VComic Sans MS
p1487
sg15
I700
sg16
g12
sg17
g12
sg18
Vc:\u005cwindows\u005cfonts\u005ccomicbd.ttf
p1488
sg20
g21
sbag1
(g8
g3
NtRp1489
(dp1490
g11
g12
sg13
VTi73pc
p1491
sg15
I700
sg16
g12
sg17
g12
sg18
VC:\u005cWindows\u005cFonts\u005cTI-73BD.TTF
p1492
sg20
g21
sbag1
(g8
g3
NtRp1493
(dp1494
g11
g12
sg13
VCandara
p1495
sg15
I700
sg16
g12
sg17
g12
sg18
Vc:\u005cwindows\u005cfonts\u005ccandarab.ttf
p1496
sg20
g21
sbag1
(g8
g3
NtRp1497
(dp1498
g11
g12
sg13
VModern No. 20
p1499
sg15
I400
sg16
g12
sg17
g12
sg18
VC:\u005cWindows\u005cFonts\u005cMOD20.TTF
p1500
sg20
g21
sbag1
(g8
g3
NtRp1501
(dp1502
g11
g12
sg13
VEbrima
p1503
sg15
I400
sg16
g12
sg17
g12
sg18
VC:\u005cWindows\u005cFonts\u005cebrima.ttf
p1504
sg20
g21
sbag1
(g8
g3
NtRp1505
(dp1506
g11
g12
sg13
VLucida Sans Typewriter
p1507
sg15
I400
sg16
g12
sg17
g12
sg18
VC:\u005cWindows\u005cFonts\u005cLTYPE.TTF
p1508
sg20
g21
sbag1
(g8
g3
NtRp1509
(dp1510
g11
g57
sg13
VLucida Sans Typewriter
p1511
sg15
I400
sg16
g12
sg17
g12
sg18
Vc:\u005cwindows\u005cfonts\u005cltypeo.ttf
p1512
sg20
g21
sbag1
(g8
g3
NtRp1513
(dp1514
g11
g28
sg13
VGeorgia
p1515
sg15
I700
sg16
g12
sg17
g12
sg18
VC:\u005cWindows\u005cFonts\u005cgeorgiaz.ttf
p1516
sg20
g21
sbag1
(g8
g3
NtRp1517
(dp1518
g11
g12
sg13
VEras Light ITC
p1519
sg15
I200
sg16
g12
sg17
g12
sg18
VC:\u005cWindows\u005cFonts\u005cERASLGHT.TTF
p1520
sg20
g21
sbag1
(g8
g3
NtRp1521
(dp1522
g11
g12
sg13
VTw Cen MT
p1523
sg15
I400
sg16
g12
sg17
g12
sg18
VC:\u005cWindows\u005cFonts\u005cTCM_____.TTF
p1524
sg20
g21
sbag1
(g8
g3
NtRp1525
(dp1526
g11
g12
sg13
VGoudy Stout
p1527
sg15
I400
sg16
g12
sg17
g12
sg18
Vc:\u005cwindows\u005cfonts\u005cgoudysto.ttf
p1528
sg20
g21
sbag1
(g8
g3
NtRp1529
(dp1530
g11
g28
sg13
VCalibri
p1531
sg15
I200
sg16
g12
sg17
g12
sg18
Vc:\u005cwindows\u005cfonts\u005ccalibrili.ttf
p1532
sg20
g21
sbag1
(g8
g3
NtRp1533
(dp1534
g11
g12
sg13
VDavid
p1535
sg15
I400
sg16
g12
sg17
g12
sg18
VC:\u005cWindows\u005cFonts\u005cdavid.ttf
p1536
sg20
g21
sbag1
(g8
g3
NtRp1537
(dp1538
g11
g12
sg13
VGigi
p1539
sg15
I400
sg16
g12
sg17
g12
sg18
VC:\u005cWindows\u005cFonts\u005cGIGI.TTF
p1540
sg20
g21
sbag1
(g8
g3
NtRp1541
(dp1542
g11
g12
sg13
VBook Antiqua
p1543
sg15
I700
sg16
g12
sg17
g12
sg18
Vc:\u005cwindows\u005cfonts\u005cantquab.ttf
p1544
sg20
g21
sbag1
(g8
g3
NtRp1545
(dp1546
g11
g12
sg13
VRockwell Condensed
p1547
sg15
I700
sg16
g243
sg17
g12
sg18
VC:\u005cWindows\u005cFonts\u005cROCCB___.TTF
p1548
sg20
g21
sbag1
(g8
g3
NtRp1549
(dp1550
g11
g12
sg13
VTi83pc
p1551
sg15
I400
sg16
g12
sg17
g12
sg18
VC:\u005cWindows\u005cFonts\u005cTI-83.TTF
p1552
sg20
g21
sbag1
(g8
g3
NtRp1553
(dp1554
g11
g12
sg13
VCalifornian FB
p1555
sg15
I400
sg16
g12
sg17
g12
sg18
VC:\u005cWindows\u005cFonts\u005cCALIFR.TTF
p1556
sg20
g21
sbag1
(g8
g3
NtRp1557
(dp1558
g11
g28
sg13
VCandara
p1559
sg15
I400
sg16
g12
sg17
g12
sg18
Vc:\u005cwindows\u005cfonts\u005ccandarai.ttf
p1560
sg20
g21
sbag1
(g8
g3
NtRp1561
(dp1562
g11
g12
sg13
VFranklin Gothic Book
p1563
sg15
I400
sg16
g12
sg17
g12
sg18
Vc:\u005cwindows\u005cfonts\u005cfrabk.ttf
p1564
sg20
g21
sbag1
(g8
g3
NtRp1565
(dp1566
g11
g12
sg13
VAparajita
p1567
sg15
I400
sg16
g12
sg17
g12
sg18
Vc:\u005cwindows\u005cfonts\u005caparaj.ttf
p1568
sg20
g21
sbag1
(g8
g3
NtRp1569
(dp1570
g11
g12
sg13
VGoudy Old Style
p1571
sg15
I700
sg16
g12
sg17
g12
sg18
Vc:\u005cwindows\u005cfonts\u005cgoudosb.ttf
p1572
sg20
g21
sbag1
(g8
g3
NtRp1573
(dp1574
g11
g12
sg13
VCordiaUPC
p1575
sg15
I700
sg16
g12
sg17
g12
sg18
VC:\u005cWindows\u005cFonts\u005ccordiaub.ttf
p1576
sg20
g21
sbag1
(g8
g3
NtRp1577
(dp1578
g11
g12
sg13
VEras Light ITC
p1579
sg15
I200
sg16
g12
sg17
g12
sg18
Vc:\u005cwindows\u005cfonts\u005ceraslght.ttf
p1580
sg20
g21
sbag1
(g8
g3
NtRp1581
(dp1582
g11
g28
sg13
VTw Cen MT
p1583
sg15
I700
sg16
g12
sg17
g12
sg18
VC:\u005cWindows\u005cFonts\u005cTCBI____.TTF
p1584
sg20
g21
sbag1
(g8
g3
NtRp1585
(dp1586
g11
g12
sg13
VCooper Black
p1587
sg15
I900
sg16
g12
sg17
g12
sg18
VC:\u005cWindows\u005cFonts\u005cCOOPBL.TTF
p1588
sg20
g21
sbag1
(g8
g3
NtRp1589
(dp1590
g11
g12
sg13
VPerpetua Titling MT
p1591
sg15
I700
sg16
g12
sg17
g12
sg18
Vc:\u005cwindows\u005cfonts\u005cpertibd.ttf
p1592
sg20
g21
sbag1
(g8
g3
NtRp1593
(dp1594
g11
g28
sg13
VUtsaah
p1595
sg15
I700
sg16
g12
sg17
g12
sg18
VC:\u005cWindows\u005cFonts\u005cutsaahbi.ttf
p1596
sg20
g21
sbag1
(g8
g3
NtRp1597
(dp1598
g11
g28
sg13
VElephant
p1599
sg15
I400
sg16
g12
sg17
g12
sg18
Vc:\u005cwindows\u005cfonts\u005celephnti.ttf
p1600
sg20
g21
sbag1
(g8
g3
NtRp1601
(dp1602
g11
g28
sg13
VTimes New Roman
p1603
sg15
I500
sg16
g12
sg17
g12
sg18
VC:\u005cWindows\u005cFonts\u005ctimesi.ttf
p1604
sg20
g21
sbag1
(g8
g3
NtRp1605
(dp1606
g11
g28
sg13
VCentury Gothic
p1607
sg15
I700
sg16
g12
sg17
g12
sg18
Vc:\u005cwindows\u005cfonts\u005cgothicbi.ttf
p1608
sg20
g21
sbag1
(g8
g3
NtRp1609
(dp1610
g11
g12
sg13
VGabriola
p1611
sg15
I400
sg16
g12
sg17
g12
sg18
VC:\u005cWindows\u005cFonts\u005cGabriola.ttf
p1612
sg20
g21
sbag1
(g8
g3
NtRp1613
(dp1614
g11
g12
sg13
VHarrington
p1615
sg15
I400
sg16
g12
sg17
g12
sg18
Vc:\u005cwindows\u005cfonts\u005charngton.ttf
p1616
sg20
g21
sbag1
(g8
g3
NtRp1617
(dp1618
g11
g12
sg13
VGill Sans Ultra Bold
p1619
sg15
I700
sg16
g12
sg17
g12
sg18
VC:\u005cWindows\u005cFonts\u005cGILSANUB.TTF
p1620
sg20
g21
sbag1
(g8
g3
NtRp1621
(dp1622
g11
g12
sg13
VTw Cen MT
p1623
sg15
I700
sg16
g12
sg17
g12
sg18
VC:\u005cWindows\u005cFonts\u005cTCB_____.TTF
p1624
sg20
g21
sbag1
(g8
g3
NtRp1625
(dp1626
g11
g12
sg13
VIskoola Pota
p1627
sg15
I400
sg16
g12
sg17
g12
sg18
Vc:\u005cwindows\u005cfonts\u005ciskpota.ttf
p1628
sg20
g21
sbag1
(g8
g3
NtRp1629
(dp1630
g11
g12
sg13
VBodoni MT
p1631
sg15
I700
sg16
g243
sg17
g12
sg18
VC:\u005cWindows\u005cFonts\u005cBOD_CB.TTF
p1632
sg20
g21
sbag1
(g8
g3
NtRp1633
(dp1634
g11
g12
sg13
VEngravers MT
p1635
sg15
I400
sg16
g12
sg17
g12
sg18
VC:\u005cWindows\u005cFonts\u005cENGR.TTF
p1636
sg20
g21
sbag1
(g8
g3
NtRp1637
(dp1638
g11
g28
sg13
VCandara
p1639
sg15
I400
sg16
g12
sg17
g12
sg18
VC:\u005cWindows\u005cFonts\u005cCandarai.ttf
p1640
sg20
g21
sbag1
(g8
g3
NtRp1641
(dp1642
g11
g28
sg13
VGaramond
p1643
sg15
I400
sg16
g12
sg17
g12
sg18
Vc:\u005cwindows\u005cfonts\u005cgarait.ttf
p1644
sg20
g21
sbag1
(g8
g3
NtRp1645
(dp1646
g11
g12
sg13
VGill Sans MT
p1647
sg15
I700
sg16
g12
sg17
g12
sg18
Vc:\u005cwindows\u005cfonts\u005cgilb____.ttf
p1648
sg20
g21
sbag1
(g8
g3
NtRp1649
(dp1650
g11
g12
sg13
VCentury
p1651
sg15
I400
sg16
g12
sg17
g12
sg18
Vc:\u005cwindows\u005cfonts\u005ccentury.ttf
p1652
sg20
g21
sbag1
(g8
g3
NtRp1653
(dp1654
g11
g28
sg13
VAparajita
p1655
sg15
I400
sg16
g12
sg17
g12
sg18
Vc:\u005cwindows\u005cfonts\u005caparaji.ttf
p1656
sg20
g21
sbag1
(g8
g3
NtRp1657
(dp1658
g11
g28
sg13
VFranklin Gothic Book
p1659
sg15
I400
sg16
g12
sg17
g12
sg18
Vc:\u005cwindows\u005cfonts\u005cfrabkit.ttf
p1660
sg20
g21
sbag1
(g8
g3
NtRp1661
(dp1662
g11
g12
sg13
VMongolian Baiti
p1663
sg15
I400
sg16
g12
sg17
g12
sg18
VC:\u005cWindows\u005cFonts\u005cmonbaiti.ttf
p1664
sg20
g21
sbag1
(g8
g3
NtRp1665
(dp1666
g11
g12
sg13
VArial
p1667
sg15
I700
sg16
g243
sg17
g12
sg18
Vc:\u005cwindows\u005cfonts\u005carialnb.ttf
p1668
sg20
g21
sbag1
(g8
g3
NtRp1669
(dp1670
g11
g12
sg13
VMS Outlook
p1671
sg15
I400
sg16
g12
sg17
g12
sg18
Vc:\u005cwindows\u005cfonts\u005coutlook.ttf
p1672
sg20
g21
sbag1
(g8
g3
NtRp1673
(dp1674
g11
g28
sg13
VLucida Fax
p1675
sg15
I700
sg16
g12
sg17
g12
sg18
Vc:\u005cwindows\u005cfonts\u005clfaxdi.ttf
p1676
sg20
g21
sbag1
(g8
g3
NtRp1677
(dp1678
g11
g12
sg13
VCandara
p1679
sg15
I400
sg16
g12
sg17
g12
sg18
Vc:\u005cwindows\u005cfonts\u005ccandara.ttf
p1680
sg20
g21
sbag1
(g8
g3
NtRp1681
(dp1682
g11
g12
sg13
VCopperplate Gothic Light
p1683
sg15
I200
sg16
g12
sg17
g12
sg18
VC:\u005cWindows\u005cFonts\u005cCOPRGTL.TTF
p1684
sg20
g21
sbag1
(g8
g3
NtRp1685
(dp1686
g11
g12
sg13
VPerpetua
p1687
sg15
I400
sg16
g12
sg17
g12
sg18
VC:\u005cWindows\u005cFonts\u005cPER_____.TTF
p1688
sg20
g21
sbag1
(g8
g3
NtRp1689
(dp1690
g11
g12
sg13
VVijaya
p1691
sg15
I400
sg16
g12
sg17
g12
sg18
Vc:\u005cwindows\u005cfonts\u005cvijaya.ttf
p1692
sg20
g21
sbag1
(g8
g3
NtRp1693
(dp1694
g11
g12
sg13
VArial
p1695
sg15
I400
sg16
g243
sg17
g12
sg18
Vc:\u005cwindows\u005cfonts\u005carialn.ttf
p1696
sg20
g21
sbag1
(g8
g3
NtRp1697
(dp1698
g11
g12
sg13
VMiriam
p1699
sg15
I400
sg16
g12
sg17
g12
sg18
Vc:\u005cwindows\u005cfonts\u005cmriam.ttf
p1700
sg20
g21
sbag1
(g8
g3
NtRp1701
(dp1702
g11
g28
sg13
VCordia New
p1703
sg15
I400
sg16
g12
sg17
g12
sg18
VC:\u005cWindows\u005cFonts\u005ccordiai.ttf
p1704
sg20
g21
sbag1
(g8
g3
NtRp1705
(dp1706
g11
g12
sg13
VSegoe UI
p1707
sg15
I400
sg16
g12
sg17
g12
sg18
VC:\u005cWindows\u005cFonts\u005csegoeuil.ttf
p1708
sg20
g21
sbag1
(g8
g3
NtRp1709
(dp1710
g11
g12
sg13
VLucida Fax
p1711
sg15
I400
sg16
g12
sg17
g12
sg18
Vc:\u005cwindows\u005cfonts\u005clfax.ttf
p1712
sg20
g21
sbag1
(g8
g3
NtRp1713
(dp1714
g11
g12
sg13
VTunga
p1715
sg15
I700
sg16
g12
sg17
g12
sg18
VC:\u005cWindows\u005cFonts\u005ctungab.ttf
p1716
sg20
g21
sbag1
(g8
g3
NtRp1717
(dp1718
g11
g12
sg13
VStreet Writer (noah)
p1719
sg15
I400
sg16
g12
sg17
g12
sg18
VC:\u005cWindows\u005cFonts\u005cStreet Writers.ttf
p1720
sg20
g21
sbag1
(g8
g3
NtRp1721
(dp1722
g11
g28
sg13
VGill Sans MT
p1723
sg15
I400
sg16
g12
sg17
g12
sg18
VC:\u005cWindows\u005cFonts\u005cGILI____.TTF
p1724
sg20
g21
sbag1
(g8
g3
NtRp1725
(dp1726
g11
g12
sg13
VSakkal Majalla
p1727
sg15
I700
sg16
g12
sg17
g12
sg18
VC:\u005cWindows\u005cFonts\u005cmajallab.ttf
p1728
sg20
g21
sbag1
(g8
g3
NtRp1729
(dp1730
g11
g28
sg13
VRage Italic
p1731
sg15
I400
sg16
g12
sg17
g12
sg18
VC:\u005cWindows\u005cFonts\u005cRAGE.TTF
p1732
sg20
g21
sbag1
(g8
g3
NtRp1733
(dp1734
g11
g12
sg13
VHaettenschweiler
p1735
sg15
I400
sg16
g12
sg17
g12
sg18
Vc:\u005cwindows\u005cfonts\u005chatten.ttf
p1736
sg20
g21
sbag1
(g8
g3
NtRp1737
(dp1738
g11
g28
sg13
VPerpetua
p1739
sg15
I700
sg16
g12
sg17
g12
sg18
VC:\u005cWindows\u005cFonts\u005cPERBI___.TTF
p1740
sg20
g21
sbag1
(g8
g3
NtRp1741
(dp1742
g11
g12
sg13
VFrankRuehl
p1743
sg15
I400
sg16
g12
sg17
g12
sg18
Vc:\u005cwindows\u005cfonts\u005cfrank.ttf
p1744
sg20
g21
sbag1
(g8
g3
NtRp1745
(dp1746
g11
g12
sg13
VShonar Bangla
p1747
sg15
I400
sg16
g12
sg17
g12
sg18
VC:\u005cWindows\u005cFonts\u005cShonar.ttf
p1748
sg20
g21
sbag1
(g8
g3
NtRp1749
(dp1750
g11
g12
sg13
VBerlin Sans FB
p1751
sg15
I400
sg16
g12
sg17
g12
sg18
Vc:\u005cwindows\u005cfonts\u005cbrlnsr.ttf
p1752
sg20
g21
sbag1
(g8
g3
NtRp1753
(dp1754
g11
g12
sg13
VWide Latin
p1755
sg15
I400
sg16
Vexpanded
p1756
sg17
g12
sg18
VC:\u005cWindows\u005cFonts\u005cLATINWD.TTF
p1757
sg20
g21
sbag1
(g8
g3
NtRp1758
(dp1759
g11
g12
sg13
VBookshelf Symbol 7
p1760
sg15
I400
sg16
g12
sg17
g12
sg18
VC:\u005cWindows\u005cFonts\u005cBSSYM7.TTF
p1761
sg20
g21
sbag1
(g8
g3
NtRp1762
(dp1763
g11
g12
sg13
VTi89pc
p1764
sg15
I400
sg16
g12
sg17
g12
sg18
Vc:\u005cwindows\u005cfonts\u005cti-89.ttf
p1765
sg20
g21
sbag1
(g8
g3
NtRp1766
(dp1767
g11
g12
sg13
VBell MT
p1768
sg15
I400
sg16
g12
sg17
g12
sg18
Vc:\u005cwindows\u005cfonts\u005cbell.ttf
p1769
sg20
g21
sbag1
(g8
g3
NtRp1770
(dp1771
g11
g28
sg13
VCorbel
p1772
sg15
I700
sg16
g12
sg17
g12
sg18
VC:\u005cWindows\u005cFonts\u005ccorbelz.ttf
p1773
sg20
g21
sbag1
(g8
g3
NtRp1774
(dp1775
g11
g12
sg13
VForte
p1776
sg15
I400
sg16
g12
sg17
g12
sg18
VC:\u005cWindows\u005cFonts\u005cFORTE.TTF
p1777
sg20
g21
sbag1
(g8
g3
NtRp1778
(dp1779
g11
g12
sg13
VBodoni MT
p1780
sg15
I700
sg16
g12
sg17
g12
sg18
VC:\u005cWindows\u005cFonts\u005cBOD_B.TTF
p1781
sg20
g21
sbag1
(g8
g3
NtRp1782
(dp1783
g11
g12
sg13
VSegoe Script
p1784
sg15
I700
sg16
g12
sg17
g12
sg18
Vc:\u005cwindows\u005cfonts\u005csegoescb.ttf
p1785
sg20
g21
sbag1
(g8
g3
NtRp1786
(dp1787
g11
g28
sg13
VFranklin Gothic Heavy
p1788
sg15
I800
sg16
g12
sg17
g12
sg18
VC:\u005cWindows\u005cFonts\u005cFRAHVIT.TTF
p1789
sg20
g21
sbag1
(g8
g3
NtRp1790
(dp1791
g11
g12
sg13
VComic Sans MS
p1792
sg15
I400
sg16
g12
sg17
g12
sg18
VC:\u005cWindows\u005cFonts\u005ccomic.ttf
p1793
sg20
g21
sbag1
(g8
g3
NtRp1794
(dp1795
g11
g12
sg13
VTw Cen MT Condensed
p1796
sg15
I400
sg16
g243
sg17
g12
sg18
VC:\u005cWindows\u005cFonts\u005cTCCM____.TTF
p1797
sg20
g21
sbag1
(g8
g3
NtRp1798
(dp1799
g11
g12
sg13
VJuice ITC
p1800
sg15
I400
sg16
g12
sg17
g12
sg18
Vc:\u005cwindows\u005cfonts\u005cjuice___.ttf
p1801
sg20
g21
sbag1
(g8
g3
NtRp1802
(dp1803
g11
g12
sg13
VFrench Script MT
p1804
sg15
I400
sg16
g12
sg17
g12
sg18
VC:\u005cWindows\u005cFonts\u005cFRSCRIPT.TTF
p1805
sg20
g21
sbag1
(g8
g3
NtRp1806
(dp1807
g11
g12
sg13
VCentury Schoolbook
p1808
sg15
I700
sg16
g12
sg17
g12
sg18
VC:\u005cWindows\u005cFonts\u005cSCHLBKB.TTF
p1809
sg20
g21
sbag1
(g8
g3
NtRp1810
(dp1811
g11
g12
sg13
VMistral
p1812
sg15
I400
sg16
g12
sg17
g12
sg18
VC:\u005cWindows\u005cFonts\u005cMISTRAL.TTF
p1813
sg20
g21
sbag1
(g8
g3
NtRp1814
(dp1815
g11
g12
sg13
VFranklin Gothic Medium Cond
p1816
sg15
I500
sg16
g243
sg17
g12
sg18
Vc:\u005cwindows\u005cfonts\u005cframdcn.ttf
p1817
sg20
g21
sbag1
(g8
g3
NtRp1818
(dp1819
g11
g12
sg13
VGaramond
p1820
sg15
I700
sg16
g12
sg17
g12
sg18
VC:\u005cWindows\u005cFonts\u005cGARABD.TTF
p1821
sg20
g21
sbag1
(g8
g3
NtRp1822
(dp1823
g11
g28
sg13
VFranklin Gothic Book
p1824
sg15
I400
sg16
g12
sg17
g12
sg18
VC:\u005cWindows\u005cFonts\u005cFRABKIT.TTF
p1825
sg20
g21
sbag1
(g8
g3
NtRp1826
(dp1827
g11
g12
sg13
VJasmineUPC
p1828
sg15
I400
sg16
g12
sg17
g12
sg18
VC:\u005cWindows\u005cFonts\u005cupcjl.ttf
p1829
sg20
g21
sbag1
(g8
g3
NtRp1830
(dp1831
g11
g12
sg13
VCastellar
p1832
sg15
I400
sg16
g12
sg17
g12
sg18
VC:\u005cWindows\u005cFonts\u005cCASTELAR.TTF
p1833
sg20
g21
sbag1
(g8
g3
NtRp1834
(dp1835
g11
g12
sg13
VPalatino Linotype
p1836
sg15
I700
sg16
g12
sg17
g12
sg18
Vc:\u005cwindows\u005cfonts\u005cpalab.ttf
p1837
sg20
g21
sbag1
(g8
g3
NtRp1838
(dp1839
g11
g28
sg13
VBrush Script MT
p1840
sg15
I400
sg16
g12
sg17
g12
sg18
Vc:\u005cwindows\u005cfonts\u005cbrushsci.ttf
p1841
sg20
g21
sbag1
(g8
g3
NtRp1842
(dp1843
g11
g28
sg13
VLucida Fax
p1844
sg15
I400
sg16
g12
sg17
g12
sg18
VC:\u005cWindows\u005cFonts\u005cLFAXI.TTF
p1845
sg20
g21
sbag1
(g8
g3
NtRp1846
(dp1847
g11
g12
sg13
VFreestyle Script
p1848
sg15
I400
sg16
g12
sg17
g12
sg18
Vc:\u005cwindows\u005cfonts\u005cfreescpt.ttf
p1849
sg20
g21
sbag1
(g8
g3
NtRp1850
(dp1851
g11
g28
sg13
VBodoni MT
p1852
sg15
I400
sg16
g243
sg17
g12
sg18
Vc:\u005cwindows\u005cfonts\u005cbod_ci.ttf
p1853
sg20
g21
sbag1
(g8
g3
NtRp1854
(dp1855
g11
g12
sg13
VBell MT
p1856
sg15
I400
sg16
g12
sg17
g12
sg18
VC:\u005cWindows\u005cFonts\u005cBELL.TTF
p1857
sg20
g21
sbag1
(g8
g3
NtRp1858
(dp1859
g11
g12
sg13
VGill Sans Ultra Bold
p1860
sg15
I700
sg16
g12
sg17
g12
sg18
Vc:\u005cwindows\u005cfonts\u005cgilsanub.ttf
p1861
sg20
g21
sbag1
(g8
g3
NtRp1862
(dp1863
g11
g12
sg13
VPapyrus
p1864
sg15
I400
sg16
g12
sg17
g12
sg18
VC:\u005cWindows\u005cFonts\u005cPAPYRUS.TTF
p1865
sg20
g21
sbag1
(g8
g3
NtRp1866
(dp1867
g11
g12
sg13
VGigi
p1868
sg15
I400
sg16
g12
sg17
g12
sg18
Vc:\u005cwindows\u005cfonts\u005cgigi.ttf
p1869
sg20
g21
sbag1
(g8
g3
NtRp1870
(dp1871
g11
g12
sg13
VTempus Sans ITC
p1872
sg15
I400
sg16
g12
sg17
g12
sg18
Vc:\u005cwindows\u005cfonts\u005ctempsitc.ttf
p1873
sg20
g21
sbag1
(g8
g3
NtRp1874
(dp1875
g11
g12
sg13
VLucida Bright
p1876
sg15
I700
sg16
g12
sg17
g12
sg18
VC:\u005cWindows\u005cFonts\u005cLBRITED.TTF
p1877
sg20
g21
sbag1
(g8
g3
NtRp1878
(dp1879
g11
g12
sg13
VBerlin Sans FB
p1880
sg15
I700
sg16
g12
sg17
g12
sg18
VC:\u005cWindows\u005cFonts\u005cBRLNSB.TTF
p1881
sg20
g21
sbag1
(g8
g3
NtRp1882
(dp1883
g11
g28
sg13
VLilyUPC
p1884
sg15
I700
sg16
g12
sg17
g12
sg18
Vc:\u005cwindows\u005cfonts\u005cupclbi.ttf
p1885
sg20
g21
sbag1
(g8
g3
NtRp1886
(dp1887
g11
g12
sg13
VWide Latin
p1888
sg15
I400
sg16
g1756
sg17
g12
sg18
Vc:\u005cwindows\u005cfonts\u005clatinwd.ttf
p1889
sg20
g21
sbag1
(g8
g3
NtRp1890
(dp1891
g11
g12
sg13
VRaavi
p1892
sg15
I700
sg16
g12
sg17
g12
sg18
VC:\u005cWindows\u005cFonts\u005craavib.ttf
p1893
sg20
g21
sbag1
(g8
g3
NtRp1894
(dp1895
g11
g12
sg13
VHigh Tower Text
p1896
sg15
I400
sg16
g12
sg17
g12
sg18
Vc:\u005cwindows\u005cfonts\u005chtowert.ttf
p1897
sg20
g21
sbag1
(g8
g3
NtRp1898
(dp1899
g11
g12
sg13
VPapyrus
p1900
sg15
I400
sg16
g12
sg17
g12
sg18
Vc:\u005cwindows\u005cfonts\u005cpapyrus.ttf
p1901
sg20
g21
sbag1
(g8
g3
NtRp1902
(dp1903
g11
g28
sg13
VLucida Bright
p1904
sg15
I700
sg16
g12
sg17
g12
sg18
Vc:\u005cwindows\u005cfonts\u005clbritedi.ttf
p1905
sg20
g21
sbag1
(g8
g3
NtRp1906
(dp1907
g11
g12
sg13
VElephant
p1908
sg15
I400
sg16
g12
sg17
g12
sg18
Vc:\u005cwindows\u005cfonts\u005celephnt.ttf
p1909
sg20
g21
sbag1
(g8
g3
NtRp1910
(dp1911
g11
g12
sg13
VMicrosoft New Tai Lue
p1912
sg15
I400
sg16
g12
sg17
g12
sg18
VC:\u005cWindows\u005cFonts\u005cntailu.ttf
p1913
sg20
g21
sbag1
(g8
g3
NtRp1914
(dp1915
g11
g28
sg13
VLilyUPC
p1916
sg15
I400
sg16
g12
sg17
g12
sg18
VC:\u005cWindows\u005cFonts\u005cupcli.ttf
p1917
sg20
g21
sbag1
(g8
g3
NtRp1918
(dp1919
g11
g12
sg13
VFranklin Gothic Demi Cond
p1920
sg15
I600
sg16
g243
sg17
g12
sg18
Vc:\u005cwindows\u005cfonts\u005cfradmcn.ttf
p1921
sg20
g21
sbag1
(g8
g3
NtRp1922
(dp1923
g11
g28
sg13
VConsolas
p1924
sg15
I700
sg16
g12
sg17
g12
sg18
Vc:\u005cwindows\u005cfonts\u005cconsolaz.ttf
p1925
sg20
g21
sbag1
(g8
g3
NtRp1926
(dp1927
g11
g28
sg13
VBookman Old Style
p1928
sg15
I700
sg16
g12
sg17
g12
sg18
Vc:\u005cwindows\u005cfonts\u005cbookosbi.ttf
p1929
sg20
g21
sbag1
(g8
g3
NtRp1930
(dp1931
g11
g12
sg13
VHigh Tower Text
p1932
sg15
I400
sg16
g12
sg17
g12
sg18
VC:\u005cWindows\u005cFonts\u005cHTOWERT.TTF
p1933
sg20
g21
sbag1
(g8
g3
NtRp1934
(dp1935
g11
g28
sg13
VEucrosiaUPC
p1936
sg15
I400
sg16
g12
sg17
g12
sg18
Vc:\u005cwindows\u005cfonts\u005cupcei.ttf
p1937
sg20
g21
sbag1
(g8
g3
NtRp1938
(dp1939
g11
g12
sg13
VKodchiangUPC
p1940
sg15
I700
sg16
g12
sg17
g12
sg18
Vc:\u005cwindows\u005cfonts\u005cupckb.ttf
p1941
sg20
g21
sbag1
(g8
g3
NtRp1942
(dp1943
g11
g12
sg13
VVani
p1944
sg15
I700
sg16
g12
sg17
g12
sg18
VC:\u005cWindows\u005cFonts\u005cVanib.ttf
p1945
sg20
g21
sbag1
(g8
g3
NtRp1946
(dp1947
g11
g12
sg13
VTempus Sans ITC
p1948
sg15
I400
sg16
g12
sg17
g12
sg18
VC:\u005cWindows\u005cFonts\u005cTEMPSITC.TTF
p1949
sg20
g21
sbag1
(g8
g3
NtRp1950
(dp1951
g11
g28
sg13
VCorbel
p1952
sg15
I400
sg16
g12
sg17
g12
sg18
VC:\u005cWindows\u005cFonts\u005ccorbeli.ttf
p1953
sg20
g21
sbag1
(g8
g3
NtRp1954
(dp1955
g11
g12
sg13
VTi83Pluspc
p1956
sg15
I400
sg16
g12
sg17
g12
sg18
VC:\u005cWindows\u005cFonts\u005cTI-83PL.TTF
p1957
sg20
g21
sbag1
(g8
g3
NtRp1958
(dp1959
g11
g12
sg13
VGisha
p1960
sg15
I700
sg16
g12
sg17
g12
sg18
VC:\u005cWindows\u005cFonts\u005cgishabd.ttf
p1961
sg20
g21
sbag1
(g8
g3
NtRp1962
(dp1963
g11
g12
sg13
VPerpetua
p1964
sg15
I700
sg16
g12
sg17
g12
sg18
VC:\u005cWindows\u005cFonts\u005cPERB____.TTF
p1965
sg20
g21
sbag1
(g8
g3
NtRp1966
(dp1967
g11
g12
sg13
VEstrangelo Edessa
p1968
sg15
I400
sg16
g12
sg17
g12
sg18
VC:\u005cWindows\u005cFonts\u005cestre.ttf
p1969
sg20
g21
sbag1
(g8
g3
NtRp1970
(dp1971
g11
g12
sg13
VNyala
p1972
sg15
I400
sg16
g12
sg17
g12
sg18
Vc:\u005cwindows\u005cfonts\u005cnyala.ttf
p1973
sg20
g21
sbag1
(g8
g3
NtRp1974
(dp1975
g11
g12
sg13
VBell MT
p1976
sg15
I700
sg16
g12
sg17
g12
sg18
VC:\u005cWindows\u005cFonts\u005cBELLB.TTF
p1977
sg20
g21
sbag1
(g8
g3
NtRp1978
(dp1979
g11
g12
sg13
VRockwell
p1980
sg15
I400
sg16
g12
sg17
g12
sg18
Vc:\u005cwindows\u005cfonts\u005crock.ttf
p1981
sg20
g21
sbag1
(g8
g3
NtRp1982
(dp1983
g11
g12
sg13
VAgency FB
p1984
sg15
I700
sg16
g12
sg17
g12
sg18
VC:\u005cWindows\u005cFonts\u005cAGENCYB.TTF
p1985
sg20
g21
sbag1
(g8
g3
NtRp1986
(dp1987
g11
g12
sg13
VVrinda
p1988
sg15
I400
sg16
g12
sg17
g12
sg18
VC:\u005cWindows\u005cFonts\u005cvrinda.ttf
p1989
sg20
g21
sbag1
(g8
g3
NtRp1990
(dp1991
g11
g28
sg13
VLucida Sans
p1992
sg15
I700
sg16
g12
sg17
g12
sg18
Vc:\u005cwindows\u005cfonts\u005clsansdi.ttf
p1993
sg20
g21
sbag1
(g8
g3
NtRp1994
(dp1995
g11
g12
sg13
VTw Cen MT
p1996
sg15
I700
sg16
g12
sg17
g12
sg18
Vc:\u005cwindows\u005cfonts\u005ctcb_____.ttf
p1997
sg20
g21
sbag1
(g8
g3
NtRp1998
(dp1999
g11
g28
sg13
VFranklin Gothic Demi
p2000
sg15
I600
sg16
g12
sg17
g12
sg18
VC:\u005cWindows\u005cFonts\u005cFRADMIT.TTF
p2001
sg20
g21
sbag1
(g8
g3
NtRp2002
(dp2003
g11
g12
sg13
VCentury Gothic
p2004
sg15
I700
sg16
g12
sg17
g12
sg18
VC:\u005cWindows\u005cFonts\u005cGOTHICB.TTF
p2005
sg20
g21
sbag1
(g8
g3
NtRp2006
(dp2007
g11
g28
sg13
VRockwell
p2008
sg15
I700
sg16
g12
sg17
g12
sg18
Vc:\u005cwindows\u005cfonts\u005crockbi.ttf
p2009
sg20
g21
sbag1
(g8
g3
NtRp2010
(dp2011
g11
g12
sg13
VGeorgia
p2012
sg15
I400
sg16
g12
sg17
g12
sg18
VC:\u005cWindows\u005cFonts\u005cgeorgia.ttf
p2013
sg20
g21
sbag1
(g8
g3
NtRp2014
(dp2015
g11
g12
sg13
VPerpetua Titling MT
p2016
sg15
I200
sg16
g12
sg17
g12
sg18
VC:\u005cWindows\u005cFonts\u005cPERTILI.TTF
p2017
sg20
g21
sbag1
(g8
g3
NtRp2018
(dp2019
g11
g12
sg13
VTi86pc
p2020
sg15
I400
sg16
g12
sg17
g12
sg18
Vc:\u005cwindows\u005cfonts\u005cti-86.ttf
p2021
sg20
g21
sbag1
(g8
g3
NtRp2022
(dp2023
g11
g12
sg13
VElephant
p2024
sg15
I400
sg16
g12
sg17
g12
sg18
VC:\u005cWindows\u005cFonts\u005cELEPHNT.TTF
p2025
sg20
g21
sbag1
(g8
g3
NtRp2026
(dp2027
g11
g28
sg13
VRockwell
p2028
sg15
I400
sg16
g12
sg17
g12
sg18
VC:\u005cWindows\u005cFonts\u005cROCKI.TTF
p2029
sg20
g21
sbag1
(g8
g3
NtRp2030
(dp2031
g11
g12
sg13
VOCR A Extended
p2032
sg15
I400
sg16
g12
sg17
g12
sg18
VC:\u005cWindows\u005cFonts\u005cOCRAEXT.TTF
p2033
sg20
g21
sbag1
(g8
g3
NtRp2034
(dp2035
g11
g28
sg13
VBell MT
p2036
sg15
I400
sg16
g12
sg17
g12
sg18
VC:\u005cWindows\u005cFonts\u005cBELLI.TTF
p2037
sg20
g21
sbag1
(g8
g3
NtRp2038
(dp2039
g11
g12
sg13
VEras Bold ITC
p2040
sg15
I700
sg16
g12
sg17
g12
sg18
VC:\u005cWindows\u005cFonts\u005cERASBD.TTF
p2041
sg20
g21
sbag1
(g8
g3
NtRp2042
(dp2043
g11
g12
sg13
VTi92Pluspc
p2044
sg15
I700
sg16
g12
sg17
g12
sg18
Vc:\u005cwindows\u005cfonts\u005cti-92pb.ttf
p2045
sg20
g21
sbag1
(g8
g3
NtRp2046
(dp2047
g11
g28
sg13
VGaramond
p2048
sg15
I400
sg16
g12
sg17
g12
sg18
VC:\u005cWindows\u005cFonts\u005cGARAIT.TTF
p2049
sg20
g21
sbag1
(g8
g3
NtRp2050
(dp2051
g11
g12
sg13
VLao UI
p2052
sg15
I700
sg16
g12
sg17
g12
sg18
VC:\u005cWindows\u005cFonts\u005cLaoUIb.ttf
p2053
sg20
g21
sbag1
(g8
g3
NtRp2054
(dp2055
g11
g12
sg13
VPlaybill
p2056
sg15
I400
sg16
g12
sg17
g12
sg18
VC:\u005cWindows\u005cFonts\u005cPLAYBILL.TTF
p2057
sg20
g21
sbag1
(g8
g3
NtRp2058
(dp2059
g11
g12
sg13
VAlgerian
p2060
sg15
I400
sg16
g12
sg17
g12
sg18
Vc:\u005cwindows\u005cfonts\u005calger.ttf
p2061
sg20
g21
sbag1
(g8
g3
NtRp2062
(dp2063
g11
g12
sg13
VMatura MT Script Capitals
p2064
sg15
I400
sg16
g12
sg17
g12
sg18
Vc:\u005cwindows\u005cfonts\u005cmaturasc.ttf
p2065
sg20
g21
sbag1
(g8
g3
NtRp2066
(dp2067
g11
g28
sg13
VCordiaUPC
p2068
sg15
I400
sg16
g12
sg17
g12
sg18
Vc:\u005cwindows\u005cfonts\u005ccordiaui.ttf
p2069
sg20
g21
sbag1
(g8
g3
NtRp2070
(dp2071
g11
g12
sg13
VLucida Sans Typewriter
p2072
sg15
I400
sg16
g12
sg17
g12
sg18
Vc:\u005cwindows\u005cfonts\u005cltype.ttf
p2073
sg20
g21
sbag1
(g8
g3
NtRp2074
(dp2075
g11
g12
sg13
VGaramond
p2076
sg15
I400
sg16
g12
sg17
g12
sg18
VC:\u005cWindows\u005cFonts\u005cGARA.TTF
p2077
sg20
g21
sbag1
(g8
g3
NtRp2078
(dp2079
g11
g12
sg13
VFranklin Gothic Demi
p2080
sg15
I600
sg16
g12
sg17
g12
sg18
VC:\u005cWindows\u005cFonts\u005cFRADM.TTF
p2081
sg20
g21
sbag1
(g8
g3
NtRp2082
(dp2083
g11
g12
sg13
VRavie
p2084
sg15
I400
sg16
g12
sg17
g12
sg18
VC:\u005cWindows\u005cFonts\u005cRAVIE.TTF
p2085
sg20
g21
sbag1
(g8
g3
NtRp2086
(dp2087
g11
g12
sg13
VPalace Script MT
p2088
sg15
I400
sg16
g12
sg17
g12
sg18
Vc:\u005cwindows\u005cfonts\u005cpalscri.ttf
p2089
sg20
g21
sbag1
(g8
g3
NtRp2090
(dp2091
g11
g12
sg13
VNiagara Solid
p2092
sg15
I400
sg16
g12
sg17
g12
sg18
Vc:\u005cwindows\u005cfonts\u005cniagsol.ttf
p2093
sg20
g21
sbag1
(g8
g3
NtRp2094
(dp2095
g11
g12
sg13
VCentury Gothic
p2096
sg15
I400
sg16
g12
sg17
g12
sg18
Vc:\u005cwindows\u005cfonts\u005cgothic.ttf
p2097
sg20
g21
sbag1
(g8
g3
NtRp2098
(dp2099
g11
g12
sg13
VShonar Bangla
p2100
sg15
I700
sg16
g12
sg17
g12
sg18
VC:\u005cWindows\u005cFonts\u005cShonarb.ttf
p2101
sg20
g21
sbag1
(g8
g3
NtRp2102
(dp2103
g11
g12
sg13
VWebdings
p2104
sg15
I400
sg16
g12
sg17
g12
sg18
VC:\u005cWindows\u005cFonts\u005cwebdings.ttf
p2105
sg20
g21
sbag1
(g8
g3
NtRp2106
(dp2107
g11
g12
sg13
VGaramond
p2108
sg15
I400
sg16
g12
sg17
g12
sg18
Vc:\u005cwindows\u005cfonts\u005cgara.ttf
p2109
sg20
g21
sbag1
(g8
g3
NtRp2110
(dp2111
g11
g12
sg13
VShowcard Gothic
p2112
sg15
I400
sg16
g12
sg17
g12
sg18
VC:\u005cWindows\u005cFonts\u005cSHOWG.TTF
p2113
sg20
g21
sbag1
(g8
g3
NtRp2114
(dp2115
g11
g28
sg13
VLucida Fax
p2116
sg15
I400
sg16
g12
sg17
g12
sg18
Vc:\u005cwindows\u005cfonts\u005clfaxi.ttf
p2117
sg20
g21
sbag1
(g8
g3
NtRp2118
(dp2119
g11
g12
sg13
VFranklin Gothic Heavy
p2120
sg15
I800
sg16
g12
sg17
g12
sg18
Vc:\u005cwindows\u005cfonts\u005cfrahv.ttf
p2121
sg20
g21
sbag1
(g8
g3
NtRp2122
(dp2123
g11
g12
sg13
VNiagara Engraved
p2124
sg15
I400
sg16
g12
sg17
g12
sg18
VC:\u005cWindows\u005cFonts\u005cNIAGENG.TTF
p2125
sg20
g21
sbag1
(g8
g3
NtRp2126
(dp2127
g11
g12
sg13
VBrowallia New
p2128
sg15
I400
sg16
g12
sg17
g12
sg18
VC:\u005cWindows\u005cFonts\u005cbrowa.ttf
p2129
sg20
g21
sbag1
(g8
g3
NtRp2130
(dp2131
g11
g12
sg13
VLao UI
p2132
sg15
I400
sg16
g12
sg17
g12
sg18
VC:\u005cWindows\u005cFonts\u005cLaoUI.ttf
p2133
sg20
g21
sbag1
(g8
g3
NtRp2134
(dp2135
g11
g12
sg13
VAndalus
p2136
sg15
I400
sg16
g12
sg17
g12
sg18
VC:\u005cWindows\u005cFonts\u005candlso.ttf
p2137
sg20
g21
sbag1
(g8
g3
NtRp2138
(dp2139
g11
g12
sg13
VInformal Roman
p2140
sg15
I500
sg16
g12
sg17
g12
sg18
VC:\u005cWindows\u005cFonts\u005cINFROMAN.TTF
p2141
sg20
g21
sbag1
(g8
g3
NtRp2142
(dp2143
g11
g12
sg13
VTi89pc
p2144
sg15
I400
sg16
g12
sg17
g12
sg18
VC:\u005cWindows\u005cFonts\u005cTI-89.TTF
p2145
sg20
g21
sbag1
(g8
g3
NtRp2146
(dp2147
g11
g12
sg13
VMicrosoft New Tai Lue
p2148
sg15
I700
sg16
g12
sg17
g12
sg18
VC:\u005cWindows\u005cFonts\u005cntailub.ttf
p2149
sg20
g21
sbag1
(g8
g3
NtRp2150
(dp2151
g11
g12
sg13
VVani
p2152
sg15
I700
sg16
g12
sg17
g12
sg18
Vc:\u005cwindows\u005cfonts\u005cvanib.ttf
p2153
sg20
g21
sbag1
(g8
g3
NtRp2154
(dp2155
g11
g12
sg13
VTI Uni
p2156
sg15
I700
sg16
g12
sg17
g12
sg18
VC:\u005cWindows\u005cFonts\u005cTIUniBd_.ttf
p2157
sg20
g21
sbag1
(g8
g3
NtRp2158
(dp2159
g11
g12
sg13
VMS Reference Specialty
p2160
sg15
I400
sg16
g12
sg17
g12
sg18
Vc:\u005cwindows\u005cfonts\u005crefspcl.ttf
p2161
sg20
g21
sbag1
(g8
g3
NtRp2162
(dp2163
g11
g28
sg13
VGoudy Old Style
p2164
sg15
I400
sg16
g12
sg17
g12
sg18
Vc:\u005cwindows\u005cfonts\u005cgoudosi.ttf
p2165
sg20
g21
sbag1
(g8
g3
NtRp2166
(dp2167
g11
g28
sg13
VBook Antiqua
p2168
sg15
I400
sg16
g12
sg17
g12
sg18
Vc:\u005cwindows\u005cfonts\u005cantquai.ttf
p2169
sg20
g21
sbag1
(g8
g3
NtRp2170
(dp2171
g11
g12
sg13
VLucida Bright
p2172
sg15
I400
sg16
g12
sg17
g12
sg18
Vc:\u005cwindows\u005cfonts\u005clbrite.ttf
p2173
sg20
g21
sbag1
(g8
g3
NtRp2174
(dp2175
g11
g12
sg13
VKokila
p2176
sg15
I400
sg16
g12
sg17
g12
sg18
VC:\u005cWindows\u005cFonts\u005ckokila.ttf
p2177
sg20
g21
sbag1
(g8
g3
NtRp2178
(dp2179
g11
g12
sg13
VVerdana
p2180
sg15
I400
sg16
g12
sg17
g12
sg18
VC:\u005cWindows\u005cFonts\u005cverdana.ttf
p2181
sg20
g21
sbag1
(g8
g3
NtRp2182
(dp2183
g11
g12
sg13
VFrench Script MT
p2184
sg15
I400
sg16
g12
sg17
g12
sg18
Vc:\u005cwindows\u005cfonts\u005cfrscript.ttf
p2185
sg20
g21
sbag1
(g8
g3
NtRp2186
(dp2187
g11
g12
sg13
VRockwell
p2188
sg15
I400
sg16
g12
sg17
g12
sg18
VC:\u005cWindows\u005cFonts\u005cROCK.TTF
p2189
sg20
g21
sbag1
(g8
g3
NtRp2190
(dp2191
g11
g28
sg13
VArial
p2192
sg15
I700
sg16
g243
sg17
g12
sg18
VC:\u005cWindows\u005cFonts\u005cARIALNBI.TTF
p2193
sg20
g21
sbag1
(g8
g3
NtRp2194
(dp2195
g11
g12
sg13
VBodoni MT
p2196
sg15
I900
sg16
g12
sg17
g12
sg18
Vc:\u005cwindows\u005cfonts\u005cbod_blar.ttf
p2197
sg20
g21
sbag1
(g8
g3
NtRp2198
(dp2199
g11
g12
sg13
VCopperplate Gothic Bold
p2200
sg15
I700
sg16
g12
sg17
g12
sg18
Vc:\u005cwindows\u005cfonts\u005ccoprgtb.ttf
p2201
sg20
g21
sbag1
(g8
g3
NtRp2202
(dp2203
g11
g28
sg13
VGoudy Old Style
p2204
sg15
I400
sg16
g12
sg17
g12
sg18
VC:\u005cWindows\u005cFonts\u005cGOUDOSI.TTF
p2205
sg20
g21
sbag1
(g8
g3
NtRp2206
(dp2207
g11
g12
sg13
VHarrington
p2208
sg15
I400
sg16
g12
sg17
g12
sg18
VC:\u005cWindows\u005cFonts\u005cHARNGTON.TTF
p2209
sg20
g21
sbag1
(g8
g3
NtRp2210
(dp2211
g11
g12
sg13
VGill Sans MT Condensed
p2212
sg15
I400
sg16
g243
sg17
g12
sg18
Vc:\u005cwindows\u005cfonts\u005cgilc____.ttf
p2213
sg20
g21
sbag1
(g8
g3
NtRp2214
(dp2215
g11
g12
sg13
VTi73pc
p2216
sg15
I400
sg16
g12
sg17
g12
sg18
VC:\u005cWindows\u005cFonts\u005cTI-73.TTF
p2217
sg20
g21
sbag1
(g8
g3
NtRp2218
(dp2219
g11
g28
sg13
VBodoni MT
p2220
sg15
I700
sg16
g12
sg17
g12
sg18
VC:\u005cWindows\u005cFonts\u005cBOD_BI.TTF
p2221
sg20
g21
sbag1
(g8
g3
NtRp2222
(dp2223
g11
g12
sg13
VParchment
p2224
sg15
I400
sg16
g12
sg17
g12
sg18
VC:\u005cWindows\u005cFonts\u005cPARCHM.TTF
p2225
sg20
g21
sbag1
(g8
g3
NtRp2226
(dp2227
g11
g12
sg13
VMistral
p2228
sg15
I400
sg16
g12
sg17
g12
sg18
Vc:\u005cwindows\u005cfonts\u005cmistral.ttf
p2229
sg20
g21
sbag1
(g8
g3
NtRp2230
(dp2231
g11
g28
sg13
VBrowallia New
p2232
sg15
I700
sg16
g12
sg17
g12
sg18
Vc:\u005cwindows\u005cfonts\u005cbrowaz.ttf
p2233
sg20
g21
sbag1
(g8
g3
NtRp2234
(dp2235
g11
g12
sg13
VRockwell Condensed
p2236
sg15
I400
sg16
g243
sg17
g12
sg18
Vc:\u005cwindows\u005cfonts\u005crocc____.ttf
p2237
sg20
g21
sbag1
(g8
g3
NtRp2238
(dp2239
g11
g28
sg13
VDilleniaUPC
p2240
sg15
I400
sg16
g12
sg17
g12
sg18
VC:\u005cWindows\u005cFonts\u005cupcdi.ttf
p2241
sg20
g21
sbag1
(g8
g3
NtRp2242
(dp2243
g11
g12
sg13
VCordiaUPC
p2244
sg15
I400
sg16
g12
sg17
g12
sg18
Vc:\u005cwindows\u005cfonts\u005ccordiau.ttf
p2245
sg20
g21
sbag1
(g8
g3
NtRp2246
(dp2247
g11
g12
sg13
VEucrosiaUPC
p2248
sg15
I700
sg16
g12
sg17
g12
sg18
Vc:\u005cwindows\u005cfonts\u005cupceb.ttf
p2249
sg20
g21
sbag1
(g8
g3
NtRp2250
(dp2251
g11
g28
sg13
VVivaldi
p2252
sg15
I400
sg16
g12
sg17
g12
sg18
VC:\u005cWindows\u005cFonts\u005cVIVALDII.TTF
p2253
sg20
g21
sbag1
(g8
g3
NtRp2254
(dp2255
g11
g12
sg13
VBookman Old Style
p2256
sg15
I400
sg16
g12
sg17
g12
sg18
VC:\u005cWindows\u005cFonts\u005cBOOKOS.TTF
p2257
sg20
g21
sbag1
(g8
g3
NtRp2258
(dp2259
g11
g12
sg13
VTahoma
p2260
sg15
I400
sg16
g12
sg17
g12
sg18
VC:\u005cWindows\u005cFonts\u005ctahoma.ttf
p2261
sg20
g21
sbag1
(g8
g3
NtRp2262
(dp2263
g11
g12
sg13
VMagneto
p2264
sg15
I700
sg16
g12
sg17
g12
sg18
VC:\u005cWindows\u005cFonts\u005cMAGNETOB.TTF
p2265
sg20
g21
sbag1
(g8
g3
NtRp2266
(dp2267
g11
g12
sg13
VTw Cen MT Condensed
p2268
sg15
I400
sg16
g243
sg17
g12
sg18
Vc:\u005cwindows\u005cfonts\u005ctccm____.ttf
p2269
sg20
g21
sbag1
(g8
g3
NtRp2270
(dp2271
g11
g12
sg13
VGill Sans MT Ext Condensed Bold
p2272
sg15
I700
sg16
g243
sg17
g12
sg18
Vc:\u005cwindows\u005cfonts\u005cglsnecb.ttf
p2273
sg20
g21
sbag1
(g8
g3
NtRp2274
(dp2275
g11
g12
sg13
VAngsanaUPC
p2276
sg15
I400
sg16
g12
sg17
g12
sg18
VC:\u005cWindows\u005cFonts\u005cangsau.ttf
p2277
sg20
g21
sbag1
(g8
g3
NtRp2278
(dp2279
g11
g28
sg13
VAngsana New
p2280
sg15
I700
sg16
g12
sg17
g12
sg18
Vc:\u005cwindows\u005cfonts\u005cangsaz.ttf
p2281
sg20
g21
sbag1
(g8
g3
NtRp2282
(dp2283
g11
g12
sg13
VFranklin Gothic Medium Cond
p2284
sg15
I500
sg16
g243
sg17
g12
sg18
VC:\u005cWindows\u005cFonts\u005cFRAMDCN.TTF
p2285
sg20
g21
sbag1
(g8
g3
NtRp2286
(dp2287
g11
g12
sg13
VImprint MT Shadow
p2288
sg15
I400
sg16
g12
sg17
g12
sg18
VC:\u005cWindows\u005cFonts\u005cIMPRISHA.TTF
p2289
sg20
g21
sbag1
(g8
g3
NtRp2290
(dp2291
g11
g12
sg13
VGill Sans MT
p2292
sg15
I400
sg16
g12
sg17
g12
sg18
VC:\u005cWindows\u005cFonts\u005cGIL_____.TTF
p2293
sg20
g21
sbag1
(g8
g3
NtRp2294
(dp2295
g11
g12
sg13
VFootlight MT Light
p2296
sg15
I200
sg16
g12
sg17
g12
sg18
VC:\u005cWindows\u005cFonts\u005cFTLTLT.TTF
p2297
sg20
g21
sbag1
(g8
g3
NtRp2298
(dp2299
g11
g12
sg13
VCentury Gothic
p2300
sg15
I700
sg16
g12
sg17
g12
sg18
Vc:\u005cwindows\u005cfonts\u005cgothicb.ttf
p2301
sg20
g21
sbag1
(g8
g3
NtRp2302
(dp2303
g11
g28
sg13
VVivaldi
p2304
sg15
I400
sg16
g12
sg17
g12
sg18
Vc:\u005cwindows\u005cfonts\u005cvivaldii.ttf
p2305
sg20
g21
sbag1
(g8
g3
NtRp2306
(dp2307
g11
g12
sg13
VBookman Old Style
p2308
sg15
I400
sg16
g12
sg17
g12
sg18
Vc:\u005cwindows\u005cfonts\u005cbookos.ttf
p2309
sg20
g21
sbag1
(g8
g3
NtRp2310
(dp2311
g11
g28
sg13
VCalifornian FB
p2312
sg15
I400
sg16
g12
sg17
g12
sg18
VC:\u005cWindows\u005cFonts\u005cCALIFI.TTF
p2313
sg20
g21
sbag1
(g8
g3
NtRp2314
(dp2315
g11
g12
sg13
VBerlin Sans FB Demi
p2316
sg15
I700
sg16
g12
sg17
g12
sg18
Vc:\u005cwindows\u005cfonts\u005cbrlnsdb.ttf
p2317
sg20
g21
sbag1
(g8
g3
NtRp2318
(dp2319
g11
g12
sg13
VPerpetua
p2320
sg15
I700
sg16
g12
sg17
g12
sg18
Vc:\u005cwindows\u005cfonts\u005cperb____.ttf
p2321
sg20
g21
sbag1
(g8
g3
NtRp2322
(dp2323
g11
g28
sg13
VRage Italic
p2324
sg15
I400
sg16
g12
sg17
g12
sg18
Vc:\u005cwindows\u005cfonts\u005crage.ttf
p2325
sg20
g21
sbag1
(g8
g3
NtRp2326
(dp2327
g11
g28
sg13
VArial
p2328
sg15
I700
sg16
g243
sg17
g12
sg18
Vc:\u005cwindows\u005cfonts\u005carialnbi.ttf
p2329
sg20
g21
sbag1
(g8
g3
NtRp2330
(dp2331
g11
g12
sg13
VBodoni MT
p2332
sg15
I700
sg16
g243
sg17
g12
sg18
Vc:\u005cwindows\u005cfonts\u005cbod_cb.ttf
p2333
sg20
g21
sbag1
(g8
g3
NtRp2334
(dp2335
g11
g12
sg13
VParchment
p2336
sg15
I400
sg16
g12
sg17
g12
sg18
Vc:\u005cwindows\u005cfonts\u005cparchm.ttf
p2337
sg20
g21
sbag1
(g8
g3
NtRp2338
(dp2339
g11
g28
sg13
VHarlow Solid Italic
p2340
sg15
I400
sg16
g12
sg17
g12
sg18
Vc:\u005cwindows\u005cfonts\u005charlowsi.ttf
p2341
sg20
g21
sbag1
(g8
g3
NtRp2342
(dp2343
g11
g12
sg13
VPoor Richard
p2344
sg15
I400
sg16
g12
sg17
g12
sg18
VC:\u005cWindows\u005cFonts\u005cPOORICH.TTF
p2345
sg20
g21
sbag1
(g8
g3
NtRp2346
(dp2347
g11
g12
sg13
VBodoni MT
p2348
sg15
I400
sg16
g243
sg17
g12
sg18
VC:\u005cWindows\u005cFonts\u005cBOD_CR.TTF
p2349
sg20
g21
sbag1
(g8
g3
NtRp2350
(dp2351
g11
g12
sg13
VShowcard Gothic
p2352
sg15
I400
sg16
g12
sg17
g12
sg18
Vc:\u005cwindows\u005cfonts\u005cshowg.ttf
p2353
sg20
g21
sbag1
(g8
g3
NtRp2354
(dp2355
g11
g28
sg13
VArial
p2356
sg15
I400
sg16
g243
sg17
g12
sg18
Vc:\u005cwindows\u005cfonts\u005carialni.ttf
p2357
sg20
g21
sbag1
(g8
g3
NtRp2358
(dp2359
g11
g28
sg13
VLucida Sans
p2360
sg15
I700
sg16
g12
sg17
g12
sg18
VC:\u005cWindows\u005cFonts\u005cLSANSDI.TTF
p2361
sg20
g21
sbag1
(g8
g3
NtRp2362
(dp2363
g11
g28
sg13
VCentury Gothic
p2364
sg15
I400
sg16
g12
sg17
g12
sg18
Vc:\u005cwindows\u005cfonts\u005cgothici.ttf
p2365
sg20
g21
sbag1
(g8
g3
NtRp2366
(dp2367
g11
g12
sg13
VRockwell Extra Bold
p2368
sg15
I700
sg16
g12
sg17
g12
sg18
VC:\u005cWindows\u005cFonts\u005cROCKEB.TTF
p2369
sg20
g21
sbag1
(g8
g3
NtRp2370
(dp2371
g11
g12
sg13
VTi86Pc
p2372
sg15
I700
sg16
g12
sg17
g12
sg18
Vc:\u005cwindows\u005cfonts\u005cti-86bd.ttf
p2373
sg20
g21
sbag1
(g8
g3
NtRp2374
(dp2375
g11
g28
sg13
VLucida Bright
p2376
sg15
I700
sg16
g12
sg17
g12
sg18
VC:\u005cWindows\u005cFonts\u005cLBRITEDI.TTF
p2377
sg20
g21
sbag1
(g8
g3
NtRp2378
(dp2379
g11
g12
sg13
VEras Demi ITC
p2380
sg15
I600
sg16
g12
sg17
g12
sg18
VC:\u005cWindows\u005cFonts\u005cERASDEMI.TTF
p2381
sg20
g21
sbag1
(g8
g3
NtRp2382
(dp2383
g11
g12
sg13
VLao UI
p2384
sg15
I700
sg16
g12
sg17
g12
sg18
Vc:\u005cwindows\u005cfonts\u005claouib.ttf
p2385
sg20
g21
sbag1
(g8
g3
NtRp2386
(dp2387
g11
g12
sg13
VLucida Bright
p2388
sg15
I400
sg16
g12
sg17
g12
sg18
VC:\u005cWindows\u005cFonts\u005cLBRITE.TTF
p2389
sg20
g21
sbag1
(g8
g3
NtRp2390
(dp2391
g11
g12
sg13
VForte
p2392
sg15
I400
sg16
g12
sg17
g12
sg18
Vc:\u005cwindows\u005cfonts\u005cforte.ttf
p2393
sg20
g21
sbag1
(g8
g3
NtRp2394
(dp2395
g11
g12
sg13
VPalatino Linotype
p2396
sg15
I400
sg16
g12
sg17
g12
sg18
Vc:\u005cwindows\u005cfonts\u005cpala.ttf
p2397
sg20
g21
sbag1
(g8
g3
NtRp2398
(dp2399
g11
g12
sg13
VAgency FB
p2400
sg15
I400
sg16
g12
sg17
g12
sg18
VC:\u005cWindows\u005cFonts\u005cAGENCYR.TTF
p2401
sg20
g21
sbag1
(g8
g3
NtRp2402
(dp2403
g11
g12
sg13
VGoudy Old Style
p2404
sg15
I400
sg16
g12
sg17
g12
sg18
Vc:\u005cwindows\u005cfonts\u005cgoudos.ttf
p2405
sg20
g21
sbag1
(g8
g3
NtRp2406
(dp2407
g11
g12
sg13
VTw Cen MT Condensed Extra Bold
p2408
sg15
I700
sg16
g243
sg17
g12
sg18
Vc:\u005cwindows\u005cfonts\u005ctcceb.ttf
p2409
sg20
g21
sbag1
(g8
g3
NtRp2410
(dp2411
g11
g12
sg13
VKunstler Script
p2412
sg15
I400
sg16
g12
sg17
g12
sg18
Vc:\u005cwindows\u005cfonts\u005ckunstler.ttf
p2413
sg20
g21
sbag1
(g8
g3
NtRp2414
(dp2415
g11
g12
sg13
VArial Unicode MS
p2416
sg15
I400
sg16
g12
sg17
g12
sg18
VC:\u005cWindows\u005cFonts\u005cARIALUNI.TTF
p2417
sg20
g21
sbag1
(g8
g3
NtRp2418
(dp2419
g11
g12
sg13
VAlgerian
p2420
sg15
I400
sg16
g12
sg17
g12
sg18
VC:\u005cWindows\u005cFonts\u005cALGER.TTF
p2421
sg20
g21
sbag1
(g8
g3
NtRp2422
(dp2423
g11
g12
sg13
VRod
p2424
sg15
I400
sg16
g12
sg17
g12
sg18
Vc:\u005cwindows\u005cfonts\u005crod.ttf
p2425
sg20
g21
sbag1
(g8
g3
NtRp2426
(dp2427
g11
g12
sg13
VSegoe UI Symbol
p2428
sg15
I400
sg16
g12
sg17
g12
sg18
Vc:\u005cwindows\u005cfonts\u005cseguisym.ttf
p2429
sg20
g21
sbag1
(g8
g3
NtRp2430
(dp2431
g11
g12
sg13
VBodoni MT
p2432
sg15
I900
sg16
g12
sg17
g12
sg18
VC:\u005cWindows\u005cFonts\u005cBOD_BLAR.TTF
p2433
sg20
g21
sbag1
(g8
g3
NtRp2434
(dp2435
g11
g12
sg13
VSnap ITC
p2436
sg15
I400
sg16
g12
sg17
g12
sg18
Vc:\u005cwindows\u005cfonts\u005csnap____.ttf
p2437
sg20
g21
sbag1
(g8
g3
NtRp2438
(dp2439
g11
g28
sg13
VCandara
p2440
sg15
I700
sg16
g12
sg17
g12
sg18
Vc:\u005cwindows\u005cfonts\u005ccandaraz.ttf
p2441
sg20
g21
sbag1
(g8
g3
NtRp2442
(dp2443
g11
g12
sg13
VAgency FB
p2444
sg15
I400
sg16
g12
sg17
g12
sg18
Vc:\u005cwindows\u005cfonts\u005cagencyr.ttf
p2445
sg20
g21
sbag1
(g8
g3
NtRp2446
(dp2447
g11
g12
sg13
VEdwardian Script ITC
p2448
sg15
I400
sg16
g12
sg17
g12
sg18
Vc:\u005cwindows\u005cfonts\u005citcedscr.ttf
p2449
sg20
g21
sbag1
(g8
g3
NtRp2450
(dp2451
g11
g12
sg13
VEdwardian Script ITC
p2452
sg15
I400
sg16
g12
sg17
g12
sg18
VC:\u005cWindows\u005cFonts\u005cITCEDSCR.TTF
p2453
sg20
g21
sbag1
(g8
g3
NtRp2454
(dp2455
g11
g28
sg13
VCentury Schoolbook
p2456
sg15
I400
sg16
g12
sg17
g12
sg18
VC:\u005cWindows\u005cFonts\u005cSCHLBKI.TTF
p2457
sg20
g21
sbag1
(g8
g3
NtRp2458
(dp2459
g11
g12
sg13
VMT Extra
p2460
sg15
I400
sg16
g12
sg17
g12
sg18
Vc:\u005cprogram files (x86)\u005ccommon files\u005cmicrosoft shared\u005cequation\u005cmtextra.ttf
p2461
sg20
g21
sbag1
(g8
g3
NtRp2462
(dp2463
g11
g12
sg13
VCentury Schoolbook
p2464
sg15
I400
sg16
g12
sg17
g12
sg18
VC:\u005cWindows\u005cFonts\u005cCENSCBK.TTF
p2465
sg20
g21
sbag1
(g8
g3
NtRp2466
(dp2467
g11
g12
sg13
VGoudy Stout
p2468
sg15
I400
sg16
g12
sg17
g12
sg18
VC:\u005cWindows\u005cFonts\u005cGOUDYSTO.TTF
p2469
sg20
g21
sbag1
(g8
g3
NtRp2470
(dp2471
g11
g12
sg13
VKhmer UI
p2472
sg15
I700
sg16
g12
sg17
g12
sg18
VC:\u005cWindows\u005cFonts\u005cKhmerUIb.ttf
p2473
sg20
g21
sbag1
(g8
g3
NtRp2474
(dp2475
g11
g12
sg13
VFangSong
p2476
sg15
I400
sg16
g12
sg17
g12
sg18
Vc:\u005cwindows\u005cfonts\u005csimfang.ttf
p2477
sg20
g21
sbag1
(g8
g3
NtRp2478
(dp2479
g11
g12
sg13
VGeorgia
p2480
sg15
I700
sg16
g12
sg17
g12
sg18
Vc:\u005cwindows\u005cfonts\u005cgeorgiab.ttf
p2481
sg20
g21
sbag1
(g8
g3
NtRp2482
(dp2483
g11
g12
sg13
VGhang 
p2484
sg15
I400
sg16
g12
sg17
g12
sg18
Vc:\u005cwindows\u005cfonts\u005cno_license_ghang.ttf
p2485
sg20
g21
sbag1
(g8
g3
NtRp2486
(dp2487
g11
g12
sg13
VAngsanaUPC
p2488
sg15
I700
sg16
g12
sg17
g12
sg18
Vc:\u005cwindows\u005cfonts\u005cangsaub.ttf
p2489
sg20
g21
sbag1
(g8
g3
NtRp2490
(dp2491
g11
g12
sg13
VViner Hand ITC
p2492
sg15
I400
sg16
g12
sg17
g12
sg18
VC:\u005cWindows\u005cFonts\u005cVINERITC.TTF
p2493
sg20
g21
sbag1
(g8
g3
NtRp2494
(dp2495
g11
g12
sg13
VNiagara Engraved
p2496
sg15
I400
sg16
g12
sg17
g12
sg18
Vc:\u005cwindows\u005cfonts\u005cniageng.ttf
p2497
sg20
g21
sbag1
(g8
g3
NtRp2498
(dp2499
g11
g12
sg13
VMS Reference Specialty
p2500
sg15
I400
sg16
g12
sg17
g12
sg18
VC:\u005cWindows\u005cFonts\u005cREFSPCL.TTF
p2501
sg20
g21
sbag1
(g8
g3
NtRp2502
(dp2503
g11
g28
sg13
VRockwell
p2504
sg15
I700
sg16
g12
sg17
g12
sg18
VC:\u005cWindows\u005cFonts\u005cROCKBI.TTF
p2505
sg20
g21
sbag1
(g8
g3
NtRp2506
(dp2507
g11
g12
sg13
VLucida Sans
p2508
sg15
I700
sg16
g12
sg17
g12
sg18
Vc:\u005cwindows\u005cfonts\u005clsansd.ttf
p2509
sg20
g21
sbag1
(g8
g3
NtRp2510
(dp2511
g11
g12
sg13
VRockwell Condensed
p2512
sg15
I400
sg16
g243
sg17
g12
sg18
VC:\u005cWindows\u005cFonts\u005cROCC____.TTF
p2513
sg20
g21
sbag1
(g8
g3
NtRp2514
(dp2515
g11
g12
sg13
VMonotype Corsiva
p2516
sg15
I400
sg16
g12
sg17
g12
sg18
VC:\u005cWindows\u005cFonts\u005cMTCORSVA.TTF
p2517
sg20
g21
sbag1
(g8
g3
NtRp2518
(dp2519
g11
g12
sg13
VMS Outlook
p2520
sg15
I400
sg16
g12
sg17
g12
sg18
VC:\u005cWindows\u005cFonts\u005cOUTLOOK.TTF
p2521
sg20
g21
sbag1
(g8
g3
NtRp2522
(dp2523
g11
g28
sg13
VLucida Bright
p2524
sg15
I400
sg16
g12
sg17
g12
sg18
Vc:\u005cwindows\u005cfonts\u005clbritei.ttf
p2525
sg20
g21
sbag1
(g8
g3
NtRp2526
(dp2527
g11
g12
sg13
VBodoni MT
p2528
sg15
I400
sg16
g12
sg17
g12
sg18
VC:\u005cWindows\u005cFonts\u005cBOD_R.TTF
p2529
sg20
g21
sbag1
(g8
g3
NtRp2530
(dp2531
g11
g28
sg13
VHigh Tower Text
p2532
sg15
I400
sg16
g12
sg17
g12
sg18
Vc:\u005cwindows\u005cfonts\u005chtowerti.ttf
p2533
sg20
g21
sbag1
(g8
g3
NtRp2534
(dp2535
g11
g12
sg13
VOnyx
p2536
sg15
I400
sg16
g12
sg17
g12
sg18
Vc:\u005cwindows\u005cfonts\u005conyx.ttf
p2537
sg20
g21
sbag1
(g8
g3
NtRp2538
(dp2539
g11
g12
sg13
VKristen ITC
p2540
sg15
I400
sg16
g12
sg17
g12
sg18
Vc:\u005cwindows\u005cfonts\u005citckrist.ttf
p2541
sg20
g21
sbag1
(g8
g3
NtRp2542
(dp2543
g11
g12
sg13
VLucida Bright
p2544
sg15
I700
sg16
g12
sg17
g12
sg18
Vc:\u005cwindows\u005cfonts\u005clbrited.ttf
p2545
sg20
g21
sbag1
(g8
g3
NtRp2546
(dp2547
g11
g12
sg13
VGill Sans MT Condensed
p2548
sg15
I400
sg16
g243
sg17
g12
sg18
VC:\u005cWindows\u005cFonts\u005cGILC____.TTF
p2549
sg20
g21
sbag1
(g8
g3
NtRp2550
(dp2551
g11
g12
sg13
VGoudy Old Style
p2552
sg15
I400
sg16
g12
sg17
g12
sg18
VC:\u005cWindows\u005cFonts\u005cGOUDOS.TTF
p2553
sg20
g21
sbag1
(g8
g3
NtRp2554
(dp2555
g11
g12
sg13
VTI Uni
p2556
sg15
I400
sg16
g12
sg17
g12
sg18
Vc:\u005cwindows\u005cfonts\u005ctiuni___.ttf
p2557
sg20
g21
sbag1
(g8
g3
NtRp2558
(dp2559
g11
g12
sg13
VBradley Hand ITC
p2560
sg15
I400
sg16
g12
sg17
g12
sg18
Vc:\u005cwindows\u005cfonts\u005cbradhitc.ttf
p2561
sg20
g21
sbag1
(g8
g3
NtRp2562
(dp2563
g11
g12
sg13
VLucida Console
p2564
sg15
I400
sg16
g12
sg17
g12
sg18
VC:\u005cWindows\u005cFonts\u005clucon.ttf
p2565
sg20
g21
sbag1
(g8
g3
NtRp2566
(dp2567
g11
g12
sg13
VCentury
p2568
sg15
I400
sg16
g12
sg17
g12
sg18
VC:\u005cWindows\u005cFonts\u005cCENTURY.TTF
p2569
sg20
g21
sbag1
(g8
g3
NtRp2570
(dp2571
g11
g12
sg13
VTi83Pluspc
p2572
sg15
I400
sg16
g12
sg17
g12
sg18
Vc:\u005cwindows\u005cfonts\u005cti-83pl.ttf
p2573
sg20
g21
sbag1
(g8
g3
NtRp2574
(dp2575
g11
g12
sg13
VTi92Pluspc
p2576
sg15
I400
sg16
g12
sg17
g12
sg18
Vc:\u005cwindows\u005cfonts\u005cti-92p.ttf
p2577
sg20
g21
sbag1
(g8
g3
NtRp2578
(dp2579
g11
g12
sg13
VOld English Text MT
p2580
sg15
I400
sg16
g12
sg17
g12
sg18
VC:\u005cWindows\u005cFonts\u005cOLDENGL.TTF
p2581
sg20
g21
sbag1
(g8
g3
NtRp2582
(dp2583
g11
g12
sg13
VRaavi
p2584
sg15
I400
sg16
g12
sg17
g12
sg18
VC:\u005cWindows\u005cFonts\u005craavi.ttf
p2585
sg20
g21
sbag1
(g8
g3
NtRp2586
(dp2587
g11
g12
sg13
VVladimir Script
p2588
sg15
I400
sg16
g12
sg17
g12
sg18
Vc:\u005cwindows\u005cfonts\u005cvladimir.ttf
p2589
sg20
g21
sbag1
(g8
g3
NtRp2590
(dp2591
g11
g12
sg13
VArial
p2592
sg15
I700
sg16
g243
sg17
g12
sg18
VC:\u005cWindows\u005cFonts\u005cARIALNB.TTF
p2593
sg20
g21
sbag1
(g8
g3
NtRp2594
(dp2595
g11
g12
sg13
VEras Bold ITC
p2596
sg15
I700
sg16
g12
sg17
g12
sg18
Vc:\u005cwindows\u005cfonts\u005cerasbd.ttf
p2597
sg20
g21
sbag1
(g8
g3
NtRp2598
(dp2599
g11
g12
sg13
VBookshelf Symbol 7
p2600
sg15
I400
sg16
g12
sg17
g12
sg18
Vc:\u005cwindows\u005cfonts\u005cbssym7.ttf
p2601
sg20
g21
sbag1
(g8
g3
NtRp2602
(dp2603
g11
g12
sg13
VPlantagenet Cherokee
p2604
sg15
I400
sg16
g12
sg17
g12
sg18
VC:\u005cWindows\u005cFonts\u005cplantc.ttf
p2605
sg20
g21
sbag1
(g8
g3
NtRp2606
(dp2607
g11
g12
sg13
VCentaur
p2608
sg15
I400
sg16
g12
sg17
g12
sg18
VC:\u005cWindows\u005cFonts\u005cCENTAUR.TTF
p2609
sg20
g21
sbag1
(g8
g3
NtRp2610
(dp2611
g11
g12
sg13
VIskoola Pota
p2612
sg15
I700
sg16
g12
sg17
g12
sg18
VC:\u005cWindows\u005cFonts\u005ciskpotab.ttf
p2613
sg20
g21
sbag1
(g8
g3
NtRp2614
(dp2615
g11
g12
sg13
VTimes New Roman
p2616
sg15
I700
sg16
g12
sg17
g12
sg18
VC:\u005cWindows\u005cFonts\u005ctimesbd.ttf
p2617
sg20
g21
sbag1
(g8
g3
NtRp2618
(dp2619
g11
g12
sg13
VCandara
p2620
sg15
I400
sg16
g12
sg17
g12
sg18
VC:\u005cWindows\u005cFonts\u005cCandara.ttf
p2621
sg20
g21
sbag1
(g8
g3
NtRp2622
(dp2623
g11
g12
sg13
VTi83pc
p2624
sg15
I700
sg16
g12
sg17
g12
sg18
VC:\u005cWindows\u005cFonts\u005cTI-83BD.TTF
p2625
sg20
g21
sbag1
(g8
g3
NtRp2626
(dp2627
g11
g28
sg13
VLucida Handwriting
p2628
sg15
I400
sg16
g12
sg17
g12
sg18
Vc:\u005cwindows\u005cfonts\u005clhandw.ttf
p2629
sg20
g21
sbag1
(g8
g3
NtRp2630
(dp2631
g11
g12
sg13
VPristina
p2632
sg15
I400
sg16
g12
sg17
g12
sg18
VC:\u005cWindows\u005cFonts\u005cPRISTINA.TTF
p2633
sg20
g21
sbag1
(g8
g3
NtRp2634
(dp2635
g11
g12
sg13
VRockwell Extra Bold
p2636
sg15
I700
sg16
g12
sg17
g12
sg18
Vc:\u005cwindows\u005cfonts\u005crockeb.ttf
p2637
sg20
g21
sbag1
(g8
g3
NtRp2638
(dp2639
g11
g12
sg13
VTi86Pc
p2640
sg15
I700
sg16
g12
sg17
g12
sg18
VC:\u005cWindows\u005cFonts\u005cTI-86BD.TTF
p2641
sg20
g21
sbag1
(g8
g3
NtRp2642
(dp2643
g11
g12
sg13
VPlaybill
p2644
sg15
I400
sg16
g12
sg17
g12
sg18
Vc:\u005cwindows\u005cfonts\u005cplaybill.ttf
p2645
sg20
g21
sbag1
(g8
g3
NtRp2646
(dp2647
g11
g12
sg13
VLucida Sans Typewriter
p2648
sg15
I700
sg16
g12
sg17
g12
sg18
Vc:\u005cwindows\u005cfonts\u005cltypeb.ttf
p2649
sg20
g21
sbag1
(g8
g3
NtRp2650
(dp2651
g11
g28
sg13
VCentury Gothic
p2652
sg15
I700
sg16
g12
sg17
g12
sg18
VC:\u005cWindows\u005cFonts\u005cGOTHICBI.TTF
p2653
sg20
g21
sbag1
(g8
g3
NtRp2654
(dp2655
g11
g12
sg13
VBodoni MT
p2656
sg15
I400
sg16
g12
sg17
g12
sg18
Vc:\u005cwindows\u005cfonts\u005cbod_r.ttf
p2657
sg20
g21
sbag1
(g8
g3
NtRp2658
(dp2659
g11
g12
sg13
VBodoni MT
p2660
sg15
I400
sg16
g12
sg17
g12
sg18
Vc:\u005cwindows\u005cfonts\u005cbod_pstc.ttf
p2661
sg20
g21
sbag1
(g8
g3
NtRp2662
(dp2663
g11
g12
sg13
VTi89pc
p2664
sg15
I700
sg16
g12
sg17
g12
sg18
VC:\u005cWindows\u005cFonts\u005cTI-89BD.TTF
p2665
sg20
g21
sbag1
(g8
g3
NtRp2666
(dp2667
g11
g12
sg13
VTi83Pluspc
p2668
sg15
I700
sg16
g12
sg17
g12
sg18
VC:\u005cWindows\u005cFonts\u005cTI-83PLB.TTF
p2669
sg20
g21
sbag1
(g8
g3
NtRp2670
(dp2671
g11
g12
sg13
VFreestyle Script
p2672
sg15
I400
sg16
g12
sg17
g12
sg18
VC:\u005cWindows\u005cFonts\u005cFREESCPT.TTF
p2673
sg20
g21
sbag1
(g8
g3
NtRp2674
(dp2675
g11
g12
sg13
VLatha
p2676
sg15
I700
sg16
g12
sg17
g12
sg18
VC:\u005cWindows\u005cFonts\u005clathab.ttf
p2677
sg20
g21
sbag1
(g8
g3
NtRp2678
(dp2679
g11
g12
sg13
VGabriola
p2680
sg15
I400
sg16
g12
sg17
g12
sg18
Vc:\u005cwindows\u005cfonts\u005cgabriola.ttf
p2681
sg20
g21
sbag1
(g8
g3
NtRp2682
(dp2683
g11
g28
sg13
VPerpetua
p2684
sg15
I700
sg16
g12
sg17
g12
sg18
Vc:\u005cwindows\u005cfonts\u005cperbi___.ttf
p2685
sg20
g21
sbag1
(g8
g3
NtRp2686
(dp2687
g11
g12
sg13
VBlackadder ITC
p2688
sg15
I900
sg16
g12
sg17
g12
sg18
VC:\u005cWindows\u005cFonts\u005cITCBLKAD.TTF
p2689
sg20
g21
sbag1
(g8
g3
NtRp2690
(dp2691
g11
g12
sg13
VPerpetua Titling MT
p2692
sg15
I700
sg16
g12
sg17
g12
sg18
VC:\u005cWindows\u005cFonts\u005cPERTIBD.TTF
p2693
sg20
g21
sbag1
(g8
g3
NtRp2694
(dp2695
g11
g12
sg13
VRavie
p2696
sg15
I400
sg16
g12
sg17
g12
sg18
Vc:\u005cwindows\u005cfonts\u005cravie.ttf
p2697
sg20
g21
sbag1
(g8
g3
NtRp2698
(dp2699
g11
g12
sg13
VEras Demi ITC
p2700
sg15
I600
sg16
g12
sg17
g12
sg18
Vc:\u005cwindows\u005cfonts\u005cerasdemi.ttf
p2701
sg20
g21
sbag1
(g8
g3
NtRp2702
(dp2703
g11
g12
sg13
VTi83Pluspc
p2704
sg15
I700
sg16
g12
sg17
g12
sg18
Vc:\u005cwindows\u005cfonts\u005cti-83plb.ttf
p2705
sg20
g21
sbag1
(g8
g3
NtRp2706
(dp2707
g11
g12
sg13
VScript MT Bold
p2708
sg15
I700
sg16
g12
sg17
g12
sg18
Vc:\u005cwindows\u005cfonts\u005cscriptbl.ttf
p2709
sg20
g21
sbag1
(g8
g3
NtRp2710
(dp2711
g11
g28
sg13
VCentury Gothic
p2712
sg15
I400
sg16
g12
sg17
g12
sg18
VC:\u005cWindows\u005cFonts\u005cGOTHICI.TTF
p2713
sg20
g21
sbag1
(g8
g3
NtRp2714
(dp2715
g11
g12
sg13
VMaiandra GD
p2716
sg15
I400
sg16
g12
sg17
g12
sg18
VC:\u005cWindows\u005cFonts\u005cMAIAN.TTF
p2717
sg20
g21
sbag1
(g8
g3
NtRp2718
(dp2719
g11
g28
sg13
VCalisto MT
p2720
sg15
I700
sg16
g12
sg17
g12
sg18
Vc:\u005cwindows\u005cfonts\u005ccalistbi.ttf
p2721
sg20
g21
sbag1
(g8
g3
NtRp2722
(dp2723
g11
g12
sg13
VOld English Text MT
p2724
sg15
I400
sg16
g12
sg17
g12
sg18
Vc:\u005cwindows\u005cfonts\u005coldengl.ttf
p2725
sg20
g21
sbag1
(g8
g3
NtRp2726
(dp2727
g11
g12
sg13
VTw Cen MT Condensed
p2728
sg15
I700
sg16
g243
sg17
g12
sg18
VC:\u005cWindows\u005cFonts\u005cTCCB____.TTF
p2729
sg20
g21
sbag1
(g8
g3
NtRp2730
(dp2731
g11
g28
sg13
VHarlow Solid Italic
p2732
sg15
I400
sg16
g12
sg17
g12
sg18
VC:\u005cWindows\u005cFonts\u005cHARLOWSI.TTF
p2733
sg20
g21
sbag1
(g8
g3
NtRp2734
(dp2735
g11
g12
sg13
VTi83pc
p2736
sg15
I700
sg16
g12
sg17
g12
sg18
Vc:\u005cwindows\u005cfonts\u005cti-83bd.ttf
p2737
sg20
g21
sbag1
(g8
g3
NtRp2738
(dp2739
g11
g12
sg13
VKhmer UI
p2740
sg15
I400
sg16
g12
sg17
g12
sg18
VC:\u005cWindows\u005cFonts\u005cKhmerUI.ttf
p2741
sg20
g21
sbag1
(g8
g3
NtRp2742
(dp2743
g11
g28
sg13
VBookman Old Style
p2744
sg15
I700
sg16
g12
sg17
g12
sg18
VC:\u005cWindows\u005cFonts\u005cBOOKOSBI.TTF
p2745
sg20
g21
sbag1
(g8
g3
NtRp2746
(dp2747
g11
g12
sg13
VBerlin Sans FB
p2748
sg15
I700
sg16
g12
sg17
g12
sg18
Vc:\u005cwindows\u005cfonts\u005cbrlnsb.ttf
p2749
sg20
g21
sbag1
(g8
g3
NtRp2750
(dp2751
g11
g12
sg13
VBell MT
p2752
sg15
I700
sg16
g12
sg17
g12
sg18
Vc:\u005cwindows\u005cfonts\u005cbellb.ttf
p2753
sg20
g21
sbag1
(g8
g3
NtRp2754
(dp2755
g11
g28
sg13
VLucida Calligraphy
p2756
sg15
I400
sg16
g12
sg17
g12
sg18
VC:\u005cWindows\u005cFonts\u005cLCALLIG.TTF
p2757
sg20
g21
sbag1
(g8
g3
NtRp2758
(dp2759
g11
g28
sg13
VBodoni MT
p2760
sg15
I400
sg16
g243
sg17
g12
sg18
VC:\u005cWindows\u005cFonts\u005cBOD_CI.TTF
p2761
sg20
g21
sbag1
(g8
g3
NtRp2762
(dp2763
g11
g12
sg13
VBodoni MT
p2764
sg15
I400
sg16
g12
sg17
g12
sg18
VC:\u005cWindows\u005cFonts\u005cBOD_PSTC.TTF
p2765
sg20
g21
sbag1
(g8
g3
NtRp2766
(dp2767
g11
g12
sg13
VPoor Richard
p2768
sg15
I400
sg16
g12
sg17
g12
sg18
Vc:\u005cwindows\u005cfonts\u005cpoorich.ttf
p2769
sg20
g21
sbag1
(g8
g3
NtRp2770
(dp2771
g11
g28
sg13
VBodoni MT
p2772
sg15
I700
sg16
g243
sg17
g12
sg18
Vc:\u005cwindows\u005cfonts\u005cbod_cbi.ttf
p2773
sg20
g21
sbag1
(g8
g3
NtRp2774
(dp2775
g11
g12
sg13
VCandara
p2776
sg15
I700
sg16
g12
sg17
g12
sg18
VC:\u005cWindows\u005cFonts\u005cCandarab.ttf
p2777
sg20
g21
sbag1
(g8
g3
NtRp2778
(dp2779
g11
g12
sg13
VBroadway
p2780
sg15
I400
sg16
g12
sg17
g12
sg18
Vc:\u005cwindows\u005cfonts\u005cbroadw.ttf
p2781
sg20
g21
sbag1
(g8
g3
NtRp2782
(dp2783
g11
g12
sg13
VStencil
p2784
sg15
I400
sg16
g12
sg17
g12
sg18
Vc:\u005cwindows\u005cfonts\u005cstencil.ttf
p2785
sg20
g21
sbasS'defaultFamily'
p2786
(dp2787
Vafm
p2788
VHelvetica
p2789
sVttf
p2790
VBitstream Vera Sans
p2791
ssS'ttffiles'
p2792
(lp2793
g19
ag25
ag30
ag34
ag38
ag42
ag46
ag50
ag54
ag59
ag63
ag67
ag71
ag75
ag79
ag83
ag87
ag91
ag95
ag99
ag103
ag107
ag111
ag115
ag119
ag123
ag127
ag131
ag135
ag139
ag143
ag147
ag151
ag155
ag159
ag163
ag167
ag171
ag175
ag179
ag183
ag187
ag191
ag195
ag199
ag203
ag207
ag211
ag215
ag219
ag223
aVc:\u005cwindows\u005cfonts\u005ctaileb.ttf
p2794
ag227
ag231
ag235
ag239
ag244
ag248
ag252
ag256
ag260
ag264
ag268
ag272
ag276
ag280
ag284
ag288
ag292
ag296
ag300
ag304
ag308
ag312
ag316
ag320
ag324
ag328
ag332
ag336
ag340
ag344
ag348
ag352
ag356
ag360
ag364
ag368
ag372
ag376
ag380
aVc:\u005cwindows\u005cfonts\u005ctahomabd.ttf
p2795
ag384
aVc:\u005cwindows\u005cfonts\u005ckokilab.ttf
p2796
ag388
ag392
aVc:\u005cwindows\u005cfonts\u005cgautamib.ttf
p2797
ag396
ag400
ag404
ag408
ag412
ag416
ag420
ag424
ag428
ag432
aVc:\u005cwindows\u005cfonts\u005cverdanaz.ttf
p2798
ag436
ag440
ag444
ag448
ag452
ag456
ag460
ag464
ag468
ag472
ag476
ag480
ag484
ag488
ag492
ag496
ag500
ag504
ag508
ag512
ag516
ag520
ag524
ag528
ag532
ag536
ag540
ag544
ag548
ag552
ag556
ag560
ag564
ag568
ag572
ag576
ag580
ag584
ag588
ag592
ag596
ag600
ag604
ag608
ag612
ag616
aVc:\u005cwindows\u005cfonts\u005cvrindab.ttf
p2799
ag620
aVC:\u005cWindows\u005cFonts\u005ctrebucbi.ttf
p2800
ag624
ag628
ag632
ag636
ag640
ag644
ag648
ag652
ag656
ag660
ag664
ag668
ag672
ag676
ag680
ag684
ag688
ag692
ag696
ag700
ag704
aVC:\u005cWindows\u005cFonts\u005cmsjhbd.ttf
p2801
aVc:\u005cwindows\u005cfonts\u005cutsaahb.ttf
p2802
ag708
ag712
ag716
ag720
ag724
ag728
ag732
ag736
ag740
aVc:\u005cwindows\u005cfonts\u005csegoeui.ttf
p2803
ag744
ag748
ag752
ag756
ag760
ag764
ag768
ag772
ag776
ag780
ag784
ag788
ag792
ag796
ag800
ag804
aVc:\u005cwindows\u005cfonts\u005ctaile.ttf
p2804
ag808
ag812
ag816
aVC:\u005cWindows\u005cFonts\u005cbrowab.ttf
p2805
ag820
ag824
ag828
ag832
ag836
ag840
ag844
ag848
ag852
ag856
ag860
ag864
ag868
ag872
ag876
ag880
ag884
ag888
ag892
aVc:\u005cwindows\u005cfonts\u005cupckbi.ttf
p2806
ag896
ag900
ag904
ag908
ag912
ag916
ag920
ag924
ag928
ag932
ag936
ag940
ag944
ag948
ag952
ag956
ag960
ag964
ag968
ag972
ag976
ag980
aVC:\u005cWindows\u005cFonts\u005cverdanai.ttf
p2807
ag984
ag988
aVc:\u005cwindows\u005cfonts\u005csegoepr.ttf
p2808
aVc:\u005cwindows\u005cfonts\u005cmicross.ttf
p2809
ag992
ag996
ag1000
aVC:\u005cWindows\u005cFonts\u005cutsaah.ttf
p2810
aVc:\u005cwindows\u005cfonts\u005ckalingab.ttf
p2811
aVC:\u005cWindows\u005cFonts\u005cupcil.ttf
p2812
ag1004
ag1008
ag1012
ag1016
ag1020
ag1024
ag1028
ag1032
ag1036
ag1040
ag1044
ag1048
ag1052
aVc:\u005cwindows\u005cfonts\u005cl_10646.ttf
p2813
aVC:\u005cWindows\u005cFonts\u005cmriamc.ttf
p2814
ag1056
aVC:\u005cWindows\u005cFonts\u005cseguisb.ttf
p2815
ag1060
ag1064
ag1068
ag1072
aVC:\u005cWindows\u005cFonts\u005cmoolbor.ttf
p2816
ag1076
ag1080
ag1084
ag1088
ag1092
ag1096
ag1100
ag1104
ag1108
ag1112
ag1116
ag1120
ag1124
ag1128
ag1132
ag1136
aVc:\u005cwindows\u005cfonts\u005ckokilai.ttf
p2817
ag1140
ag1144
ag1148
ag1152
ag1156
ag1160
ag1164
ag1168
ag1172
ag1176
ag1180
ag1184
ag1188
ag1192
ag1196
ag1200
ag1204
aVc:\u005cwindows\u005cfonts\u005ccour.ttf
p2818
aVC:\u005cWindows\u005cFonts\u005clatha.ttf
p2819
ag1208
ag1212
ag1216
ag1220
ag1224
ag1228
ag1232
ag1236
ag1240
ag1244
ag1248
ag1252
ag1256
aVC:\u005cWindows\u005cFonts\u005ccalibrib.ttf
p2820
ag1260
ag1264
ag1268
ag1272
ag1276
ag1280
ag1284
ag1288
ag1292
ag1296
ag1300
ag1304
aVC:\u005cWindows\u005cFonts\u005cupcdb.ttf
p2821
ag1308
aVC:\u005cWindows\u005cFonts\u005cconsola.ttf
p2822
ag1312
ag1316
ag1320
ag1324
ag1328
ag1332
ag1336
ag1340
ag1344
ag1348
ag1352
ag1356
ag1360
ag1364
ag1368
ag1372
ag1376
ag1380
ag1384
aVC:\u005cWindows\u005cFonts\u005cdaunpenh.ttf
p2823
ag1388
ag1392
ag1396
ag1400
aVc:\u005cwindows\u005cfonts\u005ckokilabi.ttf
p2824
ag1404
ag1408
ag1412
aVC:\u005cWindows\u005cFonts\u005cbrowauz.ttf
p2825
ag1416
ag1420
ag1424
ag1428
ag1432
ag1436
ag1440
aVc:\u005cwindows\u005cfonts\u005ccourbd.ttf
p2826
ag1444
ag1448
ag1452
ag1456
ag1460
aVc:\u005cwindows\u005cfonts\u005cbrowaui.ttf
p2827
ag1464
aVC:\u005cWindows\u005cFonts\u005ctrado.ttf
p2828
aVc:\u005cwindows\u005cfonts\u005cframdit.ttf
p2829
ag1468
ag1472
ag1476
ag1480
aVC:\u005cWindows\u005cFonts\u005cupcii.ttf
p2830
ag1484
aVc:\u005cwindows\u005cfonts\u005cmangalb.ttf
p2831
ag1488
ag1492
ag1496
ag1500
ag1504
ag1508
aVc:\u005cwindows\u005cfonts\u005cupcjbi.ttf
p2832
ag1512
ag1516
aVc:\u005cwindows\u005cfonts\u005cupclb.ttf
p2833
aVC:\u005cWindows\u005cFonts\u005cmsjh.ttf
p2834
ag1520
ag1524
ag1528
aVC:\u005cWindows\u005cFonts\u005carialbi.ttf
p2835
aVc:\u005cwindows\u005cfonts\u005cupcebi.ttf
p2836
ag1532
ag1536
ag1540
ag1544
ag1548
aVC:\u005cWindows\u005cFonts\u005ccambriai.ttf
p2837
ag1552
ag1556
aVC:\u005cWindows\u005cFonts\u005cupcdbi.ttf
p2838
ag1560
aVc:\u005cwindows\u005cfonts\u005csegoesc.ttf
p2839
ag1564
ag1568
ag1572
ag1576
ag1580
ag1584
ag1588
aVc:\u005cwindows\u005cfonts\u005cconstanb.ttf
p2840
ag1592
aVc:\u005cwindows\u005cfonts\u005cgautami.ttf
p2841
ag1596
ag1600
ag1604
ag1608
aVC:\u005cWindows\u005cFonts\u005cvijayab.ttf
p2842
ag1612
ag1616
aVc:\u005cwindows\u005cfonts\u005ccalibriz.ttf
p2843
ag1620
ag1624
ag1628
ag1632
ag1636
ag1640
aVC:\u005cWindows\u005cFonts\u005cangsauz.ttf
p2844
ag1644
aVC:\u005cWindows\u005cFonts\u005ctrebucbd.ttf
p2845
aVc:\u005cwindows\u005cfonts\u005cupcib.ttf
p2846
aVC:\u005cWindows\u005cFonts\u005ccouri.ttf
p2847
ag1648
aVC:\u005cWindows\u005cFonts\u005ccordiauz.ttf
p2848
aVc:\u005cwindows\u005cfonts\u005ccordiab.ttf
p2849
aVc:\u005cwindows\u005cfonts\u005ceuphemia.ttf
p2850
ag1652
aVc:\u005cwindows\u005cfonts\u005cangsab.ttf
p2851
ag1656
ag1660
aVc:\u005cwindows\u005cfonts\u005cconstanz.ttf
p2852
ag1664
aVC:\u005cWindows\u005cFonts\u005caparaj.ttf
p2853
ag1668
ag1672
aVC:\u005cWindows\u005cFonts\u005csylfaen.ttf
p2854
ag1676
ag1680
ag1684
ag1688
ag1692
ag1696
ag1700
ag1704
ag1708
aVC:\u005cWindows\u005cFonts\u005csimpbdo.ttf
p2855
ag1712
ag1716
ag1720
aVC:\u005cWindows\u005cFonts\u005cmriam.ttf
p2856
ag1724
ag1728
aVC:\u005cWindows\u005cFonts\u005ccomicbd.ttf
p2857
ag1732
ag1736
aVC:\u005cWindows\u005cFonts\u005ciskpota.ttf
p2858
ag1740
ag1744
ag1748
ag1752
ag1757
ag1761
aVc:\u005cwindows\u005cfonts\u005cmsyi.ttf
p2859
aVc:\u005cwindows\u005cfonts\u005cwingding.ttf
p2860
ag1765
aVC:\u005cWindows\u005cFonts\u005csimkai.ttf
p2861
ag1769
aVC:\u005cWindows\u005cFonts\u005ctradbdo.ttf
p2862
aVC:\u005cWindows\u005cFonts\u005csimhei.ttf
p2863
aVC:\u005cWindows\u005cFonts\u005cbrowai.ttf
p2864
ag1773
ag1777
ag1781
aVC:\u005cWindows\u005cFonts\u005cupcji.ttf
p2865
ag1785
aVC:\u005cWindows\u005cFonts\u005carialbd.ttf
p2866
ag1789
ag1793
ag1797
ag1801
ag1805
ag1809
aVc:\u005cwindows\u005cfonts\u005cangsa.ttf
p2867
aVc:\u005cwindows\u005cfonts\u005ccalibril.ttf
p2868
ag1813
ag1817
aVC:\u005cWindows\u005cFonts\u005cupcel.ttf
p2869
ag1821
ag1825
ag1829
ag1833
ag1837
ag1841
ag1845
ag1849
ag1853
ag1857
ag1861
ag1865
ag1869
ag1873
ag1877
aVC:\u005cWindows\u005cFonts\u005cshrutib.ttf
p2870
ag1881
ag1885
aVc:\u005cwindows\u005cfonts\u005cupcjl.ttf
p2871
ag1889
ag1893
ag1897
ag1901
ag1905
ag1909
aVc:\u005cwindows\u005cfonts\u005caparajb.ttf
p2872
aVC:\u005cWindows\u005cFonts\u005cdavidbd.ttf
p2873
aVc:\u005cwindows\u005cfonts\u005cariblk.ttf
p2874
ag1913
ag1917
ag1921
ag1925
ag1929
aVc:\u005cwindows\u005cfonts\u005craavib.ttf
p2875
ag1933
ag1937
ag1941
ag1945
ag1949
aVC:\u005cWindows\u005cFonts\u005ctrebuc.ttf
p2876
ag1953
ag1957
ag1961
aVC:\u005cWindows\u005cFonts\u005cconsolab.ttf
p2877
ag1965
ag1969
ag1973
ag1977
ag1981
aVc:\u005cwindows\u005cfonts\u005cupcll.ttf
p2878
ag1985
ag1989
ag1993
aVc:\u005cwindows\u005cfonts\u005ccorbeli.ttf
p2879
ag1997
ag2001
ag2005
ag2009
ag2013
aVc:\u005cwindows\u005cfonts\u005chimalaya.ttf
p2880
aVc:\u005cwindows\u005cfonts\u005ccalibrii.ttf
p2881
aVc:\u005cwindows\u005cfonts\u005ctimesi.ttf
p2882
aVc:\u005cwindows\u005cfonts\u005cupcfl.ttf
p2883
ag2017
ag2021
ag2025
ag2029
aVC:\u005cWindows\u005cFonts\u005ccourbi.ttf
p2884
aVC:\u005cWindows\u005cFonts\u005ccorbelb.ttf
p2885
ag2033
aVc:\u005cwindows\u005cfonts\u005cmsuighur.ttf
p2886
aVc:\u005cwindows\u005cfonts\u005cupcfb.ttf
p2887
aVC:\u005cWindows\u005cFonts\u005cpalai.ttf
p2888
ag2037
ag2041
ag2045
aVC:\u005cWindows\u005cFonts\u005cupckb.ttf
p2889
ag2049
ag2053
ag2057
ag2061
ag2065
ag2069
ag2073
ag2077
ag2081
ag2085
ag2089
aVC:\u005cWindows\u005cFonts\u005cnyala.ttf
p2890
ag2093
ag2097
aVc:\u005cwindows\u005cfonts\u005cmalgunbd.ttf
p2891
aVc:\u005cwindows\u005cfonts\u005cnrkis.ttf
p2892
ag2101
ag2105
aVc:\u005cwindows\u005cfonts\u005cntailu.ttf
p2893
aVc:\u005cwindows\u005cfonts\u005ckartikab.ttf
p2894
aVc:\u005cwindows\u005cfonts\u005cdavid.ttf
p2895
aVC:\u005cWindows\u005cFonts\u005ccalibrili.ttf
p2896
ag2109
ag2113
ag2117
aVC:\u005cWindows\u005cFonts\u005cbrowau.ttf
p2897
ag2121
ag2125
aVc:\u005cwindows\u005cfonts\u005cupcfbi.ttf
p2898
aVc:\u005cwindows\u005cfonts\u005cleelawdb.ttf
p2899
aVc:\u005cwindows\u005cfonts\u005cgeorgiaz.ttf
p2900
ag2129
ag2133
aVc:\u005cwindows\u005cfonts\u005cwebdings.ttf
p2901
aVC:\u005cWindows\u005cFonts\u005cupclbi.ttf
p2902
ag2137
aVC:\u005cWindows\u005cFonts\u005csegoeuiz.ttf
p2903
ag2141
ag2145
ag2149
ag2153
ag2157
aVc:\u005cwindows\u005cfonts\u005cconsolai.ttf
p2904
ag2161
ag2165
ag2169
aVc:\u005cwindows\u005cfonts\u005cgeorgia.ttf
p2905
ag2173
ag2177
ag2181
aVc:\u005cwindows\u005cfonts\u005csegoeuii.ttf
p2906
ag2185
ag2189
aVc:\u005cwindows\u005cfonts\u005cupcli.ttf
p2907
aVc:\u005cwindows\u005cfonts\u005cmonbaiti.ttf
p2908
ag2193
aVc:\u005cwindows\u005cfonts\u005ckaiu.ttf
p2909
ag2197
ag2201
aVc:\u005cwindows\u005cfonts\u005ccorbel.ttf
p2910
ag2205
ag2209
ag2213
aVc:\u005cwindows\u005cfonts\u005ckokila.ttf
p2911
ag2217
aVC:\u005cWindows\u005cFonts\u005cutsaahi.ttf
p2912
ag2221
ag2225
ag2229
aVc:\u005cwindows\u005cfonts\u005cmajallab.ttf
p2913
ag2233
ag2237
aVC:\u005cWindows\u005cFonts\u005csymbol.ttf
p2914
ag2241
aVC:\u005cWindows\u005cFonts\u005cbrowaub.ttf
p2915
aVC:\u005cWindows\u005cFonts\u005caparaji.ttf
p2916
ag2245
ag2249
ag2253
ag2257
aVC:\u005cWindows\u005cFonts\u005cpalab.ttf
p2917
aVC:\u005cWindows\u005cFonts\u005cgisha.ttf
p2918
aVC:\u005cWindows\u005cFonts\u005cmsyh.ttf
p2919
aVC:\u005cWindows\u005cFonts\u005carial.ttf
p2920
aVc:\u005cwindows\u005cfonts\u005ccorbelz.ttf
p2921
ag2261
ag2265
ag2269
ag2273
aVc:\u005cwindows\u005cfonts\u005ccomic.ttf
p2922
aVC:\u005cWindows\u005cFonts\u005cfrank.ttf
p2923
ag2277
aVc:\u005cwindows\u005cfonts\u005csegoeprb.ttf
p2924
aVC:\u005cWindows\u005cFonts\u005csimsunb.ttf
p2925
ag2281
ag2285
ag2289
ag2293
aVC:\u005cWindows\u005cFonts\u005cahronbd.ttf
p2926
aVC:\u005cWindows\u005cFonts\u005cverdanab.ttf
p2927
ag2297
aVc:\u005cwindows\u005cfonts\u005ctahoma.ttf
p2928
ag2301
aVc:\u005cwindows\u005cfonts\u005ckalinga.ttf
p2929
aVc:\u005cwindows\u005cfonts\u005ccordiaub.ttf
p2930
aVC:\u005cWindows\u005cFonts\u005csimpo.ttf
p2931
ag2305
aVc:\u005cwindows\u005cfonts\u005candlso.ttf
p2932
ag2309
aVc:\u005cwindows\u005cfonts\u005ccordia.ttf
p2933
aVc:\u005cwindows\u005cfonts\u005cframd.ttf
p2934
ag2313
ag2317
ag2321
aVc:\u005cwindows\u005cfonts\u005cupcdi.ttf
p2935
aVC:\u005cWindows\u005cFonts\u005cupcjb.ttf
p2936
ag2325
ag2329
ag2333
aVc:\u005cwindows\u005cfonts\u005ccordiai.ttf
p2937
ag2337
ag2341
aVC:\u005cWindows\u005cFonts\u005cupceb.ttf
p2938
ag2345
aVc:\u005cwindows\u005cfonts\u005cimpact.ttf
p2939
aVc:\u005cwindows\u005cfonts\u005cmalgun.ttf
p2940
ag2349
ag2353
ag2357
ag2361
ag2365
aVC:\u005cWindows\u005cFonts\u005ccambriab.ttf
p2941
ag2369
ag2373
ag2377
aVC:\u005cWindows\u005cFonts\u005cmsyhbd.ttf
p2942
ag2381
aVc:\u005cwindows\u005cfonts\u005cgeorgiai.ttf
p2943
ag2385
ag2389
ag2393
ag2397
ag2401
aVc:\u005cwindows\u005cfonts\u005cestre.ttf
p2944
ag2405
ag2409
ag2413
ag2417
ag2421
ag2425
aVc:\u005cwindows\u005cfonts\u005ccordiaz.ttf
p2945
aVC:\u005cWindows\u005cFonts\u005cariali.ttf
p2946
ag2429
ag2433
ag2437
ag2441
ag2445
ag2449
ag2453
aVC:\u005cWindows\u005cFonts\u005cebrimabd.ttf
p2947
ag2457
ag2461
ag2465
aVc:\u005cwindows\u005cfonts\u005ccambriaz.ttf
p2948
aVC:\u005cWindows\u005cFonts\u005cbrowaz.ttf
p2949
ag2469
aVc:\u005cwindows\u005cfonts\u005cangsau.ttf
p2950
ag2473
ag2477
ag2481
ag2485
aVC:\u005cWindows\u005cFonts\u005csimfang.ttf
p2951
ag2489
ag2493
aVC:\u005cWindows\u005cFonts\u005cconstan.ttf
p2952
aVC:\u005cWindows\u005cFonts\u005cmangal.ttf
p2953
aVC:\u005cWindows\u005cFonts\u005csimpfxo.ttf
p2954
ag2497
ag2501
ag2505
ag2509
aVC:\u005cWindows\u005cFonts\u005cpala.ttf
p2955
ag2513
aVc:\u005cwindows\u005cfonts\u005csegoeuib.ttf
p2956
ag2517
ag2521
aVc:\u005cwindows\u005cfonts\u005csegoeuil.ttf
p2957
aVC:\u005cWindows\u005cFonts\u005cupcfi.ttf
p2958
ag2525
ag2529
ag2533
aVC:\u005cWindows\u005cFonts\u005crod.ttf
p2959
ag2537
ag2541
ag2545
aVC:\u005cWindows\u005cFonts\u005ctrebucit.ttf
p2960
aVc:\u005cwindows\u005cfonts\u005ctungab.ttf
p2961
ag2549
ag2553
aVc:\u005cwindows\u005cfonts\u005cebrima.ttf
p2962
ag2557
ag2561
ag2565
ag2569
ag2573
aVC:\u005cWindows\u005cFonts\u005cvijaya.ttf
p2963
ag2577
ag2581
aVc:\u005cwindows\u005cfonts\u005cangsai.ttf
p2964
ag2585
aVC:\u005cWindows\u005cFonts\u005carabtype.ttf
p2965
ag2589
ag2593
aVc:\u005cwindows\u005cfonts\u005cmajalla.ttf
p2966
ag2597
aVc:\u005cwindows\u005cfonts\u005craavi.ttf
p2967
ag2601
aVc:\u005cwindows\u005cfonts\u005ctunga.ttf
p2968
aVC:\u005cWindows\u005cFonts\u005ctimesbi.ttf
p2969
aVc:\u005cwindows\u005cfonts\u005cupcibi.ttf
p2970
aVC:\u005cWindows\u005cFonts\u005csegoescb.ttf
p2971
ag2605
aVc:\u005cwindows\u005cfonts\u005cvrinda.ttf
p2972
ag2609
ag2613
aVc:\u005cwindows\u005cfonts\u005cverdana.ttf
p2973
ag2617
ag2621
ag2625
aVc:\u005cwindows\u005cfonts\u005clvnm.ttf
p2974
aVC:\u005cWindows\u005cFonts\u005cangsaub.ttf
p2975
aVC:\u005cWindows\u005cFonts\u005ccalibri.ttf
p2976
ag2629
ag2633
ag2637
ag2641
aVc:\u005cwindows\u005cfonts\u005ctimesbd.ttf
p2977
aVc:\u005cwindows\u005cfonts\u005cupcki.ttf
p2978
ag2645
ag2649
aVC:\u005cWindows\u005cFonts\u005cupckl.ttf
p2979
ag2653
aVC:\u005cWindows\u005cFonts\u005cangsaz.ttf
p2980
ag2657
aVC:\u005cWindows\u005cFonts\u005cleelawad.ttf
p2981
aVc:\u005cwindows\u005cfonts\u005cplantc.ttf
p2982
ag2661
ag2665
aVC:\u005cWindows\u005cFonts\u005cseguisym.ttf
p2983
aVc:\u005cwindows\u005cfonts\u005cconstani.ttf
p2984
aVC:\u005cWindows\u005cFonts\u005ctimes.ttf
p2985
aVc:\u005cwindows\u005cfonts\u005cshruti.ttf
p2986
ag2669
ag2673
ag2677
ag2681
aVC:\u005cWindows\u005cFonts\u005cupcdl.ttf
p2987
aVC:\u005cWindows\u005cFonts\u005caparajbi.ttf
p2988
ag2685
aVc:\u005cwindows\u005cfonts\u005cpalabi.ttf
p2989
aVC:\u005cWindows\u005cFonts\u005ccordiaui.ttf
p2990
aVC:\u005cWindows\u005cFonts\u005cphagspa.ttf
p2991
aVc:\u005cwindows\u005cfonts\u005clucon.ttf
p2992
ag2689
ag2693
ag2697
aVc:\u005cwindows\u005cfonts\u005cbrowa.ttf
p2993
aVC:\u005cWindows\u005cFonts\u005cconsolaz.ttf
p2994
aVC:\u005cWindows\u005cFonts\u005cupcei.ttf
p2995
ag2701
ag2705
aVc:\u005cwindows\u005cfonts\u005clathab.ttf
p2996
aVc:\u005cwindows\u005cfonts\u005cutsaahbi.ttf
p2997
ag2709
ag2713
ag2717
ag2721
ag2725
ag2729
aVc:\u005cwindows\u005cfonts\u005cmvboli.ttf
p2998
aVC:\u005cWindows\u005cFonts\u005ccordiau.ttf
p2999
ag2733
aVC:\u005cWindows\u005cFonts\u005cangsaui.ttf
p3000
ag2737
aVc:\u005cwindows\u005cfonts\u005clvnmbd.ttf
p3001
ag2741
ag2745
aVc:\u005cwindows\u005cfonts\u005ciskpotab.ttf
p3002
ag2749
ag2753
ag2757
ag2761
aVc:\u005cwindows\u005cfonts\u005ckartika.ttf
p3003
aVc:\u005cwindows\u005cfonts\u005cdokchamp.ttf
p3004
ag2765
aVc:\u005cwindows\u005cfonts\u005cphagspab.ttf
p3005
aVC:\u005cWindows\u005cFonts\u005cgeorgiab.ttf
p3006
ag2769
aVc:\u005cwindows\u005cfonts\u005cntailub.ttf
p3007
aVc:\u005cwindows\u005cfonts\u005cgishabd.ttf
p3008
ag2773
ag2777
ag2781
ag2785
asS'_FontManager__default_weight'
p3009
Vnormal
p3010
sS'_version'
p3011
I101
sS'default_size'
p3012
NsS'defaultFont'
p3013
(dp3014
g2788
VC:\u005cUsers\u005cDennis\u005cAnaconda2\u005clib\u005csite-packages\u005cmatplotlib\u005cmpl-data\u005cfonts\u005cafm\u005cpplb8a.afm
p3015
sg2790
g155
ssS'afmfiles'
p3016
(lp3017
g3015
aVC:\u005cUsers\u005cDennis\u005cAnaconda2\u005clib\u005csite-packages\u005cmatplotlib\u005cmpl-data\u005cfonts\u005cafm\u005cpplri8a.afm
p3018
aVC:\u005cUsers\u005cDennis\u005cAnaconda2\u005clib\u005csite-packages\u005cmatplotlib\u005cmpl-data\u005cfonts\u005cpdfcorefonts\u005cSymbol.afm
p3019
aVC:\u005cUsers\u005cDennis\u005cAnaconda2\u005clib\u005csite-packages\u005cmatplotlib\u005cmpl-data\u005cfonts\u005cafm\u005ccmtt10.afm
p3020
aVC:\u005cUsers\u005cDennis\u005cAnaconda2\u005clib\u005csite-packages\u005cmatplotlib\u005cmpl-data\u005cfonts\u005cafm\u005cputr8a.afm
p3021
aVC:\u005cUsers\u005cDennis\u005cAnaconda2\u005clib\u005csite-packages\u005cmatplotlib\u005cmpl-data\u005cfonts\u005cpdfcorefonts\u005cTimes-Bold.afm
p3022
aVC:\u005cUsers\u005cDennis\u005cAnaconda2\u005clib\u005csite-packages\u005cmatplotlib\u005cmpl-data\u005cfonts\u005cpdfcorefonts\u005cCourier-BoldOblique.afm
p3023
aVC:\u005cUsers\u005cDennis\u005cAnaconda2\u005clib\u005csite-packages\u005cmatplotlib\u005cmpl-data\u005cfonts\u005cpdfcorefonts\u005cCourier-Bold.afm
p3024
aVC:\u005cUsers\u005cDennis\u005cAnaconda2\u005clib\u005csite-packages\u005cmatplotlib\u005cmpl-data\u005cfonts\u005cafm\u005cpbkli8a.afm
p3025
aVC:\u005cUsers\u005cDennis\u005cAnaconda2\u005clib\u005csite-packages\u005cmatplotlib\u005cmpl-data\u005cfonts\u005cpdfcorefonts\u005cTimes-Italic.afm
p3026
aVC:\u005cUsers\u005cDennis\u005cAnaconda2\u005clib\u005csite-packages\u005cmatplotlib\u005cmpl-data\u005cfonts\u005cafm\u005cptmri8a.afm
p3027
aVC:\u005cUsers\u005cDennis\u005cAnaconda2\u005clib\u005csite-packages\u005cmatplotlib\u005cmpl-data\u005cfonts\u005cafm\u005cpzdr.afm
p3028
aVC:\u005cUsers\u005cDennis\u005cAnaconda2\u005clib\u005csite-packages\u005cmatplotlib\u005cmpl-data\u005cfonts\u005cafm\u005cpagk8a.afm
p3029
aVC:\u005cUsers\u005cDennis\u005cAnaconda2\u005clib\u005csite-packages\u005cmatplotlib\u005cmpl-data\u005cfonts\u005cafm\u005cpbkdi8a.afm
p3030
aVC:\u005cUsers\u005cDennis\u005cAnaconda2\u005clib\u005csite-packages\u005cmatplotlib\u005cmpl-data\u005cfonts\u005cafm\u005cpncb8a.afm
p3031
aVC:\u005cUsers\u005cDennis\u005cAnaconda2\u005clib\u005csite-packages\u005cmatplotlib\u005cmpl-data\u005cfonts\u005cafm\u005cpcrbo8a.afm
p3032
aVC:\u005cUsers\u005cDennis\u005cAnaconda2\u005clib\u005csite-packages\u005cmatplotlib\u005cmpl-data\u005cfonts\u005cafm\u005ccmsy10.afm
p3033
aVC:\u005cUsers\u005cDennis\u005cAnaconda2\u005clib\u005csite-packages\u005cmatplotlib\u005cmpl-data\u005cfonts\u005cafm\u005cptmbi8a.afm
p3034
aVC:\u005cUsers\u005cDennis\u005cAnaconda2\u005clib\u005csite-packages\u005cmatplotlib\u005cmpl-data\u005cfonts\u005cafm\u005cputri8a.afm
p3035
aVC:\u005cUsers\u005cDennis\u005cAnaconda2\u005clib\u005csite-packages\u005cmatplotlib\u005cmpl-data\u005cfonts\u005cafm\u005cptmb8a.afm
p3036
aVC:\u005cUsers\u005cDennis\u005cAnaconda2\u005clib\u005csite-packages\u005cmatplotlib\u005cmpl-data\u005cfonts\u005cafm\u005cphvb8an.afm
p3037
aVC:\u005cUsers\u005cDennis\u005cAnaconda2\u005clib\u005csite-packages\u005cmatplotlib\u005cmpl-data\u005cfonts\u005cafm\u005cpcrb8a.afm
p3038
aVC:\u005cUsers\u005cDennis\u005cAnaconda2\u005clib\u005csite-packages\u005cmatplotlib\u005cmpl-data\u005cfonts\u005cafm\u005cpagd8a.afm
p3039
aVC:\u005cUsers\u005cDennis\u005cAnaconda2\u005clib\u005csite-packages\u005cmatplotlib\u005cmpl-data\u005cfonts\u005cpdfcorefonts\u005cHelvetica-Bold.afm
p3040
aVC:\u005cUsers\u005cDennis\u005cAnaconda2\u005clib\u005csite-packages\u005cmatplotlib\u005cmpl-data\u005cfonts\u005cafm\u005cpzcmi8a.afm
p3041
aVC:\u005cUsers\u005cDennis\u005cAnaconda2\u005clib\u005csite-packages\u005cmatplotlib\u005cmpl-data\u005cfonts\u005cafm\u005cphvro8a.afm
p3042
aVC:\u005cUsers\u005cDennis\u005cAnaconda2\u005clib\u005csite-packages\u005cmatplotlib\u005cmpl-data\u005cfonts\u005cafm\u005cptmr8a.afm
p3043
aVC:\u005cUsers\u005cDennis\u005cAnaconda2\u005clib\u005csite-packages\u005cmatplotlib\u005cmpl-data\u005cfonts\u005cafm\u005cphvr8an.afm
p3044
aVC:\u005cUsers\u005cDennis\u005cAnaconda2\u005clib\u005csite-packages\u005cmatplotlib\u005cmpl-data\u005cfonts\u005cafm\u005ccmmi10.afm
p3045
aVC:\u005cUsers\u005cDennis\u005cAnaconda2\u005clib\u005csite-packages\u005cmatplotlib\u005cmpl-data\u005cfonts\u005cafm\u005cphvro8an.afm
p3046
aVC:\u005cUsers\u005cDennis\u005cAnaconda2\u005clib\u005csite-packages\u005cmatplotlib\u005cmpl-data\u005cfonts\u005cafm\u005cpbkl8a.afm
p3047
aVC:\u005cUsers\u005cDennis\u005cAnaconda2\u005clib\u005csite-packages\u005cmatplotlib\u005cmpl-data\u005cfonts\u005cafm\u005cpsyr.afm
p3048
aVC:\u005cUsers\u005cDennis\u005cAnaconda2\u005clib\u005csite-packages\u005cmatplotlib\u005cmpl-data\u005cfonts\u005cafm\u005cphvbo8a.afm
p3049
aVC:\u005cUsers\u005cDennis\u005cAnaconda2\u005clib\u005csite-packages\u005cmatplotlib\u005cmpl-data\u005cfonts\u005cafm\u005cpplr8a.afm
p3050
aVC:\u005cUsers\u005cDennis\u005cAnaconda2\u005clib\u005csite-packages\u005cmatplotlib\u005cmpl-data\u005cfonts\u005cafm\u005cpbkd8a.afm
p3051
aVC:\u005cUsers\u005cDennis\u005cAnaconda2\u005clib\u005csite-packages\u005cmatplotlib\u005cmpl-data\u005cfonts\u005cafm\u005cpplbi8a.afm
p3052
aVC:\u005cUsers\u005cDennis\u005cAnaconda2\u005clib\u005csite-packages\u005cmatplotlib\u005cmpl-data\u005cfonts\u005cafm\u005ccmex10.afm
p3053
aVC:\u005cUsers\u005cDennis\u005cAnaconda2\u005clib\u005csite-packages\u005cmatplotlib\u005cmpl-data\u005cfonts\u005cafm\u005cputb8a.afm
p3054
aVC:\u005cUsers\u005cDennis\u005cAnaconda2\u005clib\u005csite-packages\u005cmatplotlib\u005cmpl-data\u005cfonts\u005cafm\u005cpcrro8a.afm
p3055
aVC:\u005cUsers\u005cDennis\u005cAnaconda2\u005clib\u005csite-packages\u005cmatplotlib\u005cmpl-data\u005cfonts\u005cafm\u005cpcrr8a.afm
p3056
aVC:\u005cUsers\u005cDennis\u005cAnaconda2\u005clib\u005csite-packages\u005cmatplotlib\u005cmpl-data\u005cfonts\u005cafm\u005cphvl8a.afm
p3057
aVC:\u005cUsers\u005cDennis\u005cAnaconda2\u005clib\u005csite-packages\u005cmatplotlib\u005cmpl-data\u005cfonts\u005cafm\u005cputbi8a.afm
p3058
aVC:\u005cUsers\u005cDennis\u005cAnaconda2\u005clib\u005csite-packages\u005cmatplotlib\u005cmpl-data\u005cfonts\u005cpdfcorefonts\u005cHelvetica-BoldOblique.afm
p3059
aVC:\u005cUsers\u005cDennis\u005cAnaconda2\u005clib\u005csite-packages\u005cmatplotlib\u005cmpl-data\u005cfonts\u005cpdfcorefonts\u005cHelvetica.afm
p3060
aVC:\u005cUsers\u005cDennis\u005cAnaconda2\u005clib\u005csite-packages\u005cmatplotlib\u005cmpl-data\u005cfonts\u005cafm\u005ccmr10.afm
p3061
aVC:\u005cUsers\u005cDennis\u005cAnaconda2\u005clib\u005csite-packages\u005cmatplotlib\u005cmpl-data\u005cfonts\u005cpdfcorefonts\u005cCourier.afm
p3062
aVC:\u005cUsers\u005cDennis\u005cAnaconda2\u005clib\u005csite-packages\u005cmatplotlib\u005cmpl-data\u005cfonts\u005cafm\u005cphvbo8an.afm
p3063
aVC:\u005cUsers\u005cDennis\u005cAnaconda2\u005clib\u005csite-packages\u005cmatplotlib\u005cmpl-data\u005cfonts\u005cafm\u005cphvb8a.afm
p3064
aVC:\u005cUsers\u005cDennis\u005cAnaconda2\u005clib\u005csite-packages\u005cmatplotlib\u005cmpl-data\u005cfonts\u005cafm\u005cpncbi8a.afm
p3065
aVC:\u005cUsers\u005cDennis\u005cAnaconda2\u005clib\u005csite-packages\u005cmatplotlib\u005cmpl-data\u005cfonts\u005cpdfcorefonts\u005cTimes-Roman.afm
p3066
aVC:\u005cUsers\u005cDennis\u005cAnaconda2\u005clib\u005csite-packages\u005cmatplotlib\u005cmpl-data\u005cfonts\u005cafm\u005cphvlo8a.afm
p3067
aVC:\u005cUsers\u005cDennis\u005cAnaconda2\u005clib\u005csite-packages\u005cmatplotlib\u005cmpl-data\u005cfonts\u005cafm\u005cpncr8a.afm
p3068
aVC:\u005cUsers\u005cDennis\u005cAnaconda2\u005clib\u005csite-packages\u005cmatplotlib\u005cmpl-data\u005cfonts\u005cpdfcorefonts\u005cHelvetica-Oblique.afm
p3069
aVC:\u005cUsers\u005cDennis\u005cAnaconda2\u005clib\u005csite-packages\u005cmatplotlib\u005cmpl-data\u005cfonts\u005cafm\u005cpncri8a.afm
p3070
aVC:\u005cUsers\u005cDennis\u005cAnaconda2\u005clib\u005csite-packages\u005cmatplotlib\u005cmpl-data\u005cfonts\u005cpdfcorefonts\u005cZapfDingbats.afm
p3071
aVC:\u005cUsers\u005cDennis\u005cAnaconda2\u005clib\u005csite-packages\u005cmatplotlib\u005cmpl-data\u005cfonts\u005cpdfcorefonts\u005cCourier-Oblique.afm
p3072
aVC:\u005cUsers\u005cDennis\u005cAnaconda2\u005clib\u005csite-packages\u005cmatplotlib\u005cmpl-data\u005cfonts\u005cafm\u005cphvr8a.afm
p3073
aVC:\u005cUsers\u005cDennis\u005cAnaconda2\u005clib\u005csite-packages\u005cmatplotlib\u005cmpl-data\u005cfonts\u005cafm\u005cpagko8a.afm
p3074
aVC:\u005cUsers\u005cDennis\u005cAnaconda2\u005clib\u005csite-packages\u005cmatplotlib\u005cmpl-data\u005cfonts\u005cafm\u005cpagdo8a.afm
p3075
aVC:\u005cUsers\u005cDennis\u005cAnaconda2\u005clib\u005csite-packages\u005cmatplotlib\u005cmpl-data\u005cfonts\u005cpdfcorefonts\u005cTimes-BoldItalic.afm
p3076
asS'afmlist'
p3077
(lp3078
g1
(g8
g3
NtRp3079
(dp3080
g11
Vnormal
p3081
sg13
S'Palatino'
p3082
sg15
I700
sg16
g3081
sg17
g3081
sg18
g3015
sg20
Vscalable
p3083
sbag1
(g8
g3
NtRp3084
(dp3085
g11
Vitalic
p3086
sg13
S'Palatino'
p3087
sg15
I500
sg16
g3081
sg17
g3081
sg18
g3018
sg20
g3083
sbag1
(g8
g3
NtRp3088
(dp3089
g11
g3081
sg13
S'Symbol'
p3090
sg15
I500
sg16
g3081
sg17
g3081
sg18
g3019
sg20
g3083
sbag1
(g8
g3
NtRp3091
(dp3092
g11
g3081
sg13
S'Computer Modern'
p3093
sg15
I500
sg16
g3081
sg17
g3081
sg18
g3020
sg20
g3083
sbag1
(g8
g3
NtRp3094
(dp3095
g11
g3081
sg13
S'Utopia'
p3096
sg15
I400
sg16
g3081
sg17
g3081
sg18
g3021
sg20
g3083
sbag1
(g8
g3
NtRp3097
(dp3098
g11
g3081
sg13
S'Times'
p3099
sg15
I700
sg16
g3081
sg17
g3081
sg18
g3022
sg20
g3083
sbag1
(g8
g3
NtRp3100
(dp3101
g11
g3086
sg13
S'Courier'
p3102
sg15
I700
sg16
g3081
sg17
g3081
sg18
g3023
sg20
g3083
sbag1
(g8
g3
NtRp3103
(dp3104
g11
g3081
sg13
S'Courier'
p3105
sg15
I700
sg16
g3081
sg17
g3081
sg18
g3024
sg20
g3083
sbag1
(g8
g3
NtRp3106
(dp3107
g11
g3086
sg13
S'ITC Bookman'
p3108
sg15
I200
sg16
g3081
sg17
g3081
sg18
g3025
sg20
g3083
sbag1
(g8
g3
NtRp3109
(dp3110
g11
g3086
sg13
S'Times'
p3111
sg15
I500
sg16
g3081
sg17
g3081
sg18
g3026
sg20
g3083
sbag1
(g8
g3
NtRp3112
(dp3113
g11
g3086
sg13
S'Times'
p3114
sg15
I500
sg16
g3081
sg17
g3081
sg18
g3027
sg20
g3083
sbag1
(g8
g3
NtRp3115
(dp3116
g11
g3081
sg13
S'ITC Zapf Dingbats'
p3117
sg15
I500
sg16
g3081
sg17
g3081
sg18
g3028
sg20
g3083
sbag1
(g8
g3
NtRp3118
(dp3119
g11
g3081
sg13
S'ITC Avant Garde Gothic'
p3120
sg15
I400
sg16
g3081
sg17
g3081
sg18
g3029
sg20
g3083
sbag1
(g8
g3
NtRp3121
(dp3122
g11
g3086
sg13
S'ITC Bookman'
p3123
sg15
I600
sg16
g3081
sg17
g3081
sg18
g3030
sg20
g3083
sbag1
(g8
g3
NtRp3124
(dp3125
g11
g3081
sg13
S'New Century Schoolbook'
p3126
sg15
I700
sg16
g3081
sg17
g3081
sg18
g3031
sg20
g3083
sbag1
(g8
g3
NtRp3127
(dp3128
g11
g3086
sg13
S'Courier'
p3129
sg15
I700
sg16
g3081
sg17
g3081
sg18
g3032
sg20
g3083
sbag1
(g8
g3
NtRp3130
(dp3131
g11
g3086
sg13
S'Computer Modern'
p3132
sg15
I500
sg16
g3081
sg17
g3081
sg18
g3033
sg20
g3083
sbag1
(g8
g3
NtRp3133
(dp3134
g11
g3086
sg13
S'Times'
p3135
sg15
I700
sg16
g3081
sg17
g3081
sg18
g3034
sg20
g3083
sbag1
(g8
g3
NtRp3136
(dp3137
g11
g3086
sg13
S'Utopia'
p3138
sg15
I400
sg16
g3081
sg17
g3081
sg18
g3035
sg20
g3083
sbag1
(g8
g3
NtRp3139
(dp3140
g11
g3081
sg13
S'Times'
p3141
sg15
I700
sg16
g3081
sg17
g3081
sg18
g3036
sg20
g3083
sbag1
(g8
g3
NtRp3142
(dp3143
g11
g3081
sg13
S'Helvetica'
p3144
sg15
I700
sg16
Vcondensed
p3145
sg17
g3081
sg18
g3037
sg20
g3083
sbag1
(g8
g3
NtRp3146
(dp3147
g11
g3081
sg13
S'Courier'
p3148
sg15
I700
sg16
g3081
sg17
g3081
sg18
g3038
sg20
g3083
sbag1
(g8
g3
NtRp3149
(dp3150
g11
g3081
sg13
S'ITC Avant Garde Gothic'
p3151
sg15
I600
sg16
g3081
sg17
g3081
sg18
g3039
sg20
g3083
sbag1
(g8
g3
NtRp3152
(dp3153
g11
g3081
sg13
S'Helvetica'
p3154
sg15
I700
sg16
g3081
sg17
g3081
sg18
g3040
sg20
g3083
sbag1
(g8
g3
NtRp3155
(dp3156
g11
g3086
sg13
S'ITC Zapf Chancery'
p3157
sg15
I500
sg16
g3081
sg17
g3081
sg18
g3041
sg20
g3083
sbag1
(g8
g3
NtRp3158
(dp3159
g11
g3086
sg13
S'Helvetica'
p3160
sg15
I500
sg16
g3081
sg17
g3081
sg18
g3042
sg20
g3083
sbag1
(g8
g3
NtRp3161
(dp3162
g11
g3081
sg13
S'Times'
p3163
sg15
I500
sg16
g3081
sg17
g3081
sg18
g3043
sg20
g3083
sbag1
(g8
g3
NtRp3164
(dp3165
g11
g3081
sg13
S'Helvetica'
p3166
sg15
I500
sg16
g3145
sg17
g3081
sg18
g3044
sg20
g3083
sbag1
(g8
g3
NtRp3167
(dp3168
g11
g3086
sg13
S'Computer Modern'
p3169
sg15
I500
sg16
g3081
sg17
g3081
sg18
g3045
sg20
g3083
sbag1
(g8
g3
NtRp3170
(dp3171
g11
g3086
sg13
S'Helvetica'
p3172
sg15
I500
sg16
g3145
sg17
g3081
sg18
g3046
sg20
g3083
sbag1
(g8
g3
NtRp3173
(dp3174
g11
g3081
sg13
S'ITC Bookman'
p3175
sg15
I200
sg16
g3081
sg17
g3081
sg18
g3047
sg20
g3083
sbag1
(g8
g3
NtRp3176
(dp3177
g11
g3081
sg13
S'Symbol'
p3178
sg15
I500
sg16
g3081
sg17
g3081
sg18
g3048
sg20
g3083
sbag1
(g8
g3
NtRp3179
(dp3180
g11
g3086
sg13
S'Helvetica'
p3181
sg15
I700
sg16
g3081
sg17
g3081
sg18
g3049
sg20
g3083
sbag1
(g8
g3
NtRp3182
(dp3183
g11
g3081
sg13
S'Palatino'
p3184
sg15
I500
sg16
g3081
sg17
g3081
sg18
g3050
sg20
g3083
sbag1
(g8
g3
NtRp3185
(dp3186
g11
g3081
sg13
S'ITC Bookman'
p3187
sg15
I600
sg16
g3081
sg17
g3081
sg18
g3051
sg20
g3083
sbag1
(g8
g3
NtRp3188
(dp3189
g11
g3086
sg13
S'Palatino'
p3190
sg15
I700
sg16
g3081
sg17
g3081
sg18
g3052
sg20
g3083
sbag1
(g8
g3
NtRp3191
(dp3192
g11
g3081
sg13
S'Computer Modern'
p3193
sg15
I500
sg16
g3081
sg17
g3081
sg18
g3053
sg20
g3083
sbag1
(g8
g3
NtRp3194
(dp3195
g11
g3081
sg13
S'Utopia'
p3196
sg15
I700
sg16
g3081
sg17
g3081
sg18
g3054
sg20
g3083
sbag1
(g8
g3
NtRp3197
(dp3198
g11
g3086
sg13
S'Courier'
p3199
sg15
I500
sg16
g3081
sg17
g3081
sg18
g3055
sg20
g3083
sbag1
(g8
g3
NtRp3200
(dp3201
g11
g3081
sg13
S'Courier'
p3202
sg15
I500
sg16
g3081
sg17
g3081
sg18
g3056
sg20
g3083
sbag1
(g8
g3
NtRp3203
(dp3204
g11
g3081
sg13
S'Helvetica'
p3205
sg15
I200
sg16
g3081
sg17
g3081
sg18
g3057
sg20
g3083
sbag1
(g8
g3
NtRp3206
(dp3207
g11
g3086
sg13
S'Utopia'
p3208
sg15
I700
sg16
g3081
sg17
g3081
sg18
g3058
sg20
g3083
sbag1
(g8
g3
NtRp3209
(dp3210
g11
g3086
sg13
S'Helvetica'
p3211
sg15
I700
sg16
g3081
sg17
g3081
sg18
g3059
sg20
g3083
sbag1
(g8
g3
NtRp3212
(dp3213
g11
g3081
sg13
S'Helvetica'
p3214
sg15
I500
sg16
g3081
sg17
g3081
sg18
g3060
sg20
g3083
sbag1
(g8
g3
NtRp3215
(dp3216
g11
g3081
sg13
S'Computer Modern'
p3217
sg15
I500
sg16
g3081
sg17
g3081
sg18
g3061
sg20
g3083
sbag1
(g8
g3
NtRp3218
(dp3219
g11
g3081
sg13
S'Courier'
p3220
sg15
I500
sg16
g3081
sg17
g3081
sg18
g3062
sg20
g3083
sbag1
(g8
g3
NtRp3221
(dp3222
g11
g3086
sg13
S'Helvetica'
p3223
sg15
I700
sg16
g3145
sg17
g3081
sg18
g3063
sg20
g3083
sbag1
(g8
g3
NtRp3224
(dp3225
g11
g3081
sg13
S'Helvetica'
p3226
sg15
I700
sg16
g3081
sg17
g3081
sg18
g3064
sg20
g3083
sbag1
(g8
g3
NtRp3227
(dp3228
g11
g3086
sg13
S'New Century Schoolbook'
p3229
sg15
I700
sg16
g3081
sg17
g3081
sg18
g3065
sg20
g3083
sbag1
(g8
g3
NtRp3230
(dp3231
g11
g3081
sg13
S'Times'
p3232
sg15
I500
sg16
g3081
sg17
g3081
sg18
g3066
sg20
g3083
sbag1
(g8
g3
NtRp3233
(dp3234
g11
g3086
sg13
S'Helvetica'
p3235
sg15
I200
sg16
g3081
sg17
g3081
sg18
g3067
sg20
g3083
sbag1
(g8
g3
NtRp3236
(dp3237
g11
g3081
sg13
S'New Century Schoolbook'
p3238
sg15
I500
sg16
g3081
sg17
g3081
sg18
g3068
sg20
g3083
sbag1
(g8
g3
NtRp3239
(dp3240
g11
g3086
sg13
S'Helvetica'
p3241
sg15
I500
sg16
g3081
sg17
g3081
sg18
g3069
sg20
g3083
sbag1
(g8
g3
NtRp3242
(dp3243
g11
g3086
sg13
S'New Century Schoolbook'
p3244
sg15
I500
sg16
g3081
sg17
g3081
sg18
g3070
sg20
g3083
sbag1
(g8
g3
NtRp3245
(dp3246
g11
g3081
sg13
S'ZapfDingbats'
p3247
sg15
I500
sg16
g3081
sg17
g3081
sg18
g3071
sg20
g3083
sbag1
(g8
g3
NtRp3248
(dp3249
g11
g3086
sg13
S'Courier'
p3250
sg15
I500
sg16
g3081
sg17
g3081
sg18
g3072
sg20
g3083
sbag1
(g8
g3
NtRp3251
(dp3252
g11
g3081
sg13
S'Helvetica'
p3253
sg15
I500
sg16
g3081
sg17
g3081
sg18
g3073
sg20
g3083
sbag1
(g8
g3
NtRp3254
(dp3255
g11
g3086
sg13
S'ITC Avant Garde Gothic'
p3256
sg15
I400
sg16
g3081
sg17
g3081
sg18
g3074
sg20
g3083
sbag1
(g8
g3
NtRp3257
(dp3258
g11
g3086
sg13
S'ITC Avant Garde Gothic'
p3259
sg15
I600
sg16
g3081
sg17
g3081
sg18
g3075
sg20
g3083
sbag1
(g8
g3
NtRp3260
(dp3261
g11
g3086
sg13
S'Times'
p3262
sg15
I700
sg16
g3081
sg17
g3081
sg18
g3076
sg20
g3083
sbasb.